
main:     file format elf32-tradlittlemips


Disassembly of section .text:

a0800200 <_start>:
a0800200:	27bdffe0 	addiu	sp,sp,-32
a0800204:	afbf001c 	sw	ra,28(sp)
a0800208:	afbe0018 	sw	s8,24(sp)
a080020c:	03a0f021 	move	s8,sp
a0800210:	0c2000bc 	jal	a08002f0 <asm_start>
a0800214:	00000000 	nop
a0800218:	afc00010 	sw	zero,16(s8)
a080021c:	3c02a081 	lui	v0,0xa081
a0800220:	ac40bec0 	sw	zero,-16704(v0)
a0800224:	08200098 	j	a0800260 <_start+0x60>
a0800228:	00000000 	nop
a080022c:	8fc30010 	lw	v1,16(s8)
a0800230:	3c02a081 	lui	v0,0xa081
a0800234:	2442abe0 	addiu	v0,v0,-21536
a0800238:	00621021 	addu	v0,v1,v0
a080023c:	a0400000 	sb	zero,0(v0)
a0800240:	8fc30010 	lw	v1,16(s8)
a0800244:	3c02a081 	lui	v0,0xa081
a0800248:	2442b540 	addiu	v0,v0,-19136
a080024c:	00621021 	addu	v0,v1,v0
a0800250:	a0400000 	sb	zero,0(v0)
a0800254:	8fc20010 	lw	v0,16(s8)
a0800258:	24420001 	addiu	v0,v0,1
a080025c:	afc20010 	sw	v0,16(s8)
a0800260:	8fc20010 	lw	v0,16(s8)
a0800264:	28420960 	slti	v0,v0,2400
a0800268:	1440fff0 	bnez	v0,a080022c <_start+0x2c>
a080026c:	00000000 	nop
a0800270:	0c2009d0 	jal	a0802740 <init_syscall>
a0800274:	00000000 	nop
a0800278:	3c02a081 	lui	v0,0xa081
a080027c:	24449860 	addiu	a0,v0,-26528
a0800280:	0c201959 	jal	a0806564 <printk>
a0800284:	00000000 	nop
a0800288:	0c200902 	jal	a0802408 <init_memory>
a080028c:	00000000 	nop
a0800290:	3c02a081 	lui	v0,0xa081
a0800294:	24449890 	addiu	a0,v0,-26480
a0800298:	0c201959 	jal	a0806564 <printk>
a080029c:	00000000 	nop
a08002a0:	0c200a82 	jal	a0802a08 <init_queue>
a08002a4:	00000000 	nop
a08002a8:	3c02a081 	lui	v0,0xa081
a08002ac:	244498c4 	addiu	a0,v0,-26428
a08002b0:	0c201959 	jal	a0806564 <printk>
a08002b4:	00000000 	nop
a08002b8:	0c20090e 	jal	a0802438 <init_pcb>
a08002bc:	00000000 	nop
a08002c0:	3c02a081 	lui	v0,0xa081
a08002c4:	244498f0 	addiu	a0,v0,-26384
a08002c8:	0c201959 	jal	a0806564 <printk>
a08002cc:	00000000 	nop
a08002d0:	0c20039d 	jal	a0800e74 <init_screen>
a08002d4:	00000000 	nop
a08002d8:	0c20099f 	jal	a080267c <init_exception>
a08002dc:	00000000 	nop
a08002e0:	082000b8 	j	a08002e0 <_start+0xe0>
a08002e4:	00000000 	nop
	...

a08002f0 <asm_start>:
a08002f0:	40806000 	mtc0	zero,c0_sr
a08002f4:	00000000 	nop
a08002f8:	40809000 	mtc0	zero,c0_watchlo
a08002fc:	00000000 	nop
a0800300:	40809800 	mtc0	zero,c0_watchhi
a0800304:	00000000 	nop
a0800308:	40088000 	mfc0	t0,c0_config
a080030c:	2401fff8 	li	at,-8
a0800310:	01014024 	and	t0,t0,at
a0800314:	35080002 	ori	t0,t0,0x2
a0800318:	40888000 	mtc0	t0,c0_config
a080031c:	03e00008 	jr	ra
a0800320:	00000000 	nop

a0800324 <do_scheduler>:
a0800324:	3c1aa081 	lui	k0,0xa081
a0800328:	275aaba8 	addiu	k0,k0,-21592
a080032c:	8f5a0000 	lw	k0,0(k0)
a0800330:	235a0000 	addi	k0,k0,0
a0800334:	af400000 	sw	zero,0(k0)
a0800338:	af410004 	sw	at,4(k0)
a080033c:	af420008 	sw	v0,8(k0)
a0800340:	af43000c 	sw	v1,12(k0)
a0800344:	af440010 	sw	a0,16(k0)
a0800348:	af450014 	sw	a1,20(k0)
a080034c:	af460018 	sw	a2,24(k0)
a0800350:	af47001c 	sw	a3,28(k0)
a0800354:	af480020 	sw	t0,32(k0)
a0800358:	af490024 	sw	t1,36(k0)
a080035c:	af4a0028 	sw	t2,40(k0)
a0800360:	af4b002c 	sw	t3,44(k0)
a0800364:	af4c0030 	sw	t4,48(k0)
a0800368:	af4d0034 	sw	t5,52(k0)
a080036c:	af4e0038 	sw	t6,56(k0)
a0800370:	af4f003c 	sw	t7,60(k0)
a0800374:	af500040 	sw	s0,64(k0)
a0800378:	af510044 	sw	s1,68(k0)
a080037c:	af520048 	sw	s2,72(k0)
a0800380:	af53004c 	sw	s3,76(k0)
a0800384:	af540050 	sw	s4,80(k0)
a0800388:	af550054 	sw	s5,84(k0)
a080038c:	af560058 	sw	s6,88(k0)
a0800390:	af57005c 	sw	s7,92(k0)
a0800394:	af580060 	sw	t8,96(k0)
a0800398:	af590064 	sw	t9,100(k0)
a080039c:	af5c0070 	sw	gp,112(k0)
a08003a0:	af5d0074 	sw	sp,116(k0)
a08003a4:	af5e0078 	sw	s8,120(k0)
a08003a8:	af5f007c 	sw	ra,124(k0)
a08003ac:	401b6000 	mfc0	k1,c0_sr
a08003b0:	00000000 	nop
a08003b4:	af5b0080 	sw	k1,128(k0)
a08003b8:	0000d810 	mfhi	k1
a08003bc:	af5b0084 	sw	k1,132(k0)
a08003c0:	0000d812 	mflo	k1
a08003c4:	af5b0088 	sw	k1,136(k0)
a08003c8:	401b4000 	mfc0	k1,c0_badvaddr
a08003cc:	00000000 	nop
a08003d0:	af5b008c 	sw	k1,140(k0)
a08003d4:	401b6800 	mfc0	k1,c0_cause
a08003d8:	00000000 	nop
a08003dc:	af5b0090 	sw	k1,144(k0)
a08003e0:	401b7000 	mfc0	k1,c0_epc
a08003e4:	00000000 	nop
a08003e8:	0c200ea4 	jal	a0803a90 <scheduler>
a08003ec:	af5b0094 	sw	k1,148(k0)
a08003f0:	3c1aa081 	lui	k0,0xa081
a08003f4:	275aaba8 	addiu	k0,k0,-21592
a08003f8:	8f5a0000 	lw	k0,0(k0)
a08003fc:	235a0000 	addi	k0,k0,0
a0800400:	8f400000 	lw	zero,0(k0)
a0800404:	8f410004 	lw	at,4(k0)
a0800408:	8f420008 	lw	v0,8(k0)
a080040c:	8f43000c 	lw	v1,12(k0)
a0800410:	8f440010 	lw	a0,16(k0)
a0800414:	8f450014 	lw	a1,20(k0)
a0800418:	8f460018 	lw	a2,24(k0)
a080041c:	8f47001c 	lw	a3,28(k0)
a0800420:	8f480020 	lw	t0,32(k0)
a0800424:	8f490024 	lw	t1,36(k0)
a0800428:	8f4a0028 	lw	t2,40(k0)
a080042c:	8f4b002c 	lw	t3,44(k0)
a0800430:	8f4c0030 	lw	t4,48(k0)
a0800434:	8f4d0034 	lw	t5,52(k0)
a0800438:	8f4e0038 	lw	t6,56(k0)
a080043c:	8f4f003c 	lw	t7,60(k0)
a0800440:	8f500040 	lw	s0,64(k0)
a0800444:	8f510044 	lw	s1,68(k0)
a0800448:	8f520048 	lw	s2,72(k0)
a080044c:	8f53004c 	lw	s3,76(k0)
a0800450:	8f540050 	lw	s4,80(k0)
a0800454:	8f550054 	lw	s5,84(k0)
a0800458:	8f560058 	lw	s6,88(k0)
a080045c:	8f57005c 	lw	s7,92(k0)
a0800460:	8f580060 	lw	t8,96(k0)
a0800464:	8f590064 	lw	t9,100(k0)
a0800468:	8f5c0070 	lw	gp,112(k0)
a080046c:	8f5d0074 	lw	sp,116(k0)
a0800470:	8f5e0078 	lw	s8,120(k0)
a0800474:	8f5f007c 	lw	ra,124(k0)
a0800478:	8f5b0080 	lw	k1,128(k0)
a080047c:	409b6000 	mtc0	k1,c0_sr
a0800480:	8f5b0084 	lw	k1,132(k0)
a0800484:	03600011 	mthi	k1
a0800488:	8f5b0088 	lw	k1,136(k0)
a080048c:	03600013 	mtlo	k1
a0800490:	8f5b008c 	lw	k1,140(k0)
a0800494:	409b4000 	mtc0	k1,c0_badvaddr
a0800498:	8f5b0090 	lw	k1,144(k0)
a080049c:	409b6800 	mtc0	k1,c0_cause
a08004a0:	8f5b0094 	lw	k1,148(k0)
a08004a4:	409b7000 	mtc0	k1,c0_epc
a08004a8:	03e00008 	jr	ra
a08004ac:	00000000 	nop

a08004b0 <exception_handler_entry>:
a08004b0:	401a6000 	mfc0	k0,c0_sr
a08004b4:	00000000 	nop
a08004b8:	3b5a0001 	xori	k0,k0,0x1
a08004bc:	409a6000 	mtc0	k0,c0_sr
a08004c0:	3c1aa081 	lui	k0,0xa081
a08004c4:	275aaba8 	addiu	k0,k0,-21592
a08004c8:	8f5a0000 	lw	k0,0(k0)
a08004cc:	235a009c 	addi	k0,k0,156
a08004d0:	af400000 	sw	zero,0(k0)
a08004d4:	af410004 	sw	at,4(k0)
a08004d8:	af420008 	sw	v0,8(k0)
a08004dc:	af43000c 	sw	v1,12(k0)
a08004e0:	af440010 	sw	a0,16(k0)
a08004e4:	af450014 	sw	a1,20(k0)
a08004e8:	af460018 	sw	a2,24(k0)
a08004ec:	af47001c 	sw	a3,28(k0)
a08004f0:	af480020 	sw	t0,32(k0)
a08004f4:	af490024 	sw	t1,36(k0)
a08004f8:	af4a0028 	sw	t2,40(k0)
a08004fc:	af4b002c 	sw	t3,44(k0)
a0800500:	af4c0030 	sw	t4,48(k0)
a0800504:	af4d0034 	sw	t5,52(k0)
a0800508:	af4e0038 	sw	t6,56(k0)
a080050c:	af4f003c 	sw	t7,60(k0)
a0800510:	af500040 	sw	s0,64(k0)
a0800514:	af510044 	sw	s1,68(k0)
a0800518:	af520048 	sw	s2,72(k0)
a080051c:	af53004c 	sw	s3,76(k0)
a0800520:	af540050 	sw	s4,80(k0)
a0800524:	af550054 	sw	s5,84(k0)
a0800528:	af560058 	sw	s6,88(k0)
a080052c:	af57005c 	sw	s7,92(k0)
a0800530:	af580060 	sw	t8,96(k0)
a0800534:	af590064 	sw	t9,100(k0)
a0800538:	af5c0070 	sw	gp,112(k0)
a080053c:	af5d0074 	sw	sp,116(k0)
a0800540:	af5e0078 	sw	s8,120(k0)
a0800544:	af5f007c 	sw	ra,124(k0)
a0800548:	401b6000 	mfc0	k1,c0_sr
a080054c:	00000000 	nop
a0800550:	af5b0080 	sw	k1,128(k0)
a0800554:	0000d810 	mfhi	k1
a0800558:	af5b0084 	sw	k1,132(k0)
a080055c:	0000d812 	mflo	k1
a0800560:	af5b0088 	sw	k1,136(k0)
a0800564:	401b4000 	mfc0	k1,c0_badvaddr
a0800568:	00000000 	nop
a080056c:	af5b008c 	sw	k1,140(k0)
a0800570:	401b6800 	mfc0	k1,c0_cause
a0800574:	00000000 	nop
a0800578:	af5b0090 	sw	k1,144(k0)
a080057c:	401b7000 	mfc0	k1,c0_epc
a0800580:	00000000 	nop
a0800584:	af5b0094 	sw	k1,148(k0)
a0800588:	401a6800 	mfc0	k0,c0_cause
a080058c:	00000000 	nop
a0800590:	335a007c 	andi	k0,k0,0x7c
a0800594:	3c1ba083 	lui	k1,0xa083
a0800598:	277bd890 	addiu	k1,k1,-10096
a080059c:	035bd020 	add	k0,k0,k1
a08005a0:	8f5a0000 	lw	k0,0(k0)
a08005a4:	03400008 	jr	k0
a08005a8:	00000000 	nop

a08005ac <handle_int>:
a08005ac:	40046000 	mfc0	a0,c0_sr
a08005b0:	40056800 	mfc0	a1,c0_cause
a08005b4:	0c200abb 	jal	a0802aec <interrupt_helper>
a08005b8:	27bdfff8 	addiu	sp,sp,-8
a08005bc:	27bd0008 	addiu	sp,sp,8
a08005c0:	3c1aa081 	lui	k0,0xa081
a08005c4:	275aaba8 	addiu	k0,k0,-21592
a08005c8:	8f5a0000 	lw	k0,0(k0)
a08005cc:	235a009c 	addi	k0,k0,156
a08005d0:	8f400000 	lw	zero,0(k0)
a08005d4:	8f410004 	lw	at,4(k0)
a08005d8:	8f420008 	lw	v0,8(k0)
a08005dc:	8f43000c 	lw	v1,12(k0)
a08005e0:	8f440010 	lw	a0,16(k0)
a08005e4:	8f450014 	lw	a1,20(k0)
a08005e8:	8f460018 	lw	a2,24(k0)
a08005ec:	8f47001c 	lw	a3,28(k0)
a08005f0:	8f480020 	lw	t0,32(k0)
a08005f4:	8f490024 	lw	t1,36(k0)
a08005f8:	8f4a0028 	lw	t2,40(k0)
a08005fc:	8f4b002c 	lw	t3,44(k0)
a0800600:	8f4c0030 	lw	t4,48(k0)
a0800604:	8f4d0034 	lw	t5,52(k0)
a0800608:	8f4e0038 	lw	t6,56(k0)
a080060c:	8f4f003c 	lw	t7,60(k0)
a0800610:	8f500040 	lw	s0,64(k0)
a0800614:	8f510044 	lw	s1,68(k0)
a0800618:	8f520048 	lw	s2,72(k0)
a080061c:	8f53004c 	lw	s3,76(k0)
a0800620:	8f540050 	lw	s4,80(k0)
a0800624:	8f550054 	lw	s5,84(k0)
a0800628:	8f560058 	lw	s6,88(k0)
a080062c:	8f57005c 	lw	s7,92(k0)
a0800630:	8f580060 	lw	t8,96(k0)
a0800634:	8f590064 	lw	t9,100(k0)
a0800638:	8f5c0070 	lw	gp,112(k0)
a080063c:	8f5d0074 	lw	sp,116(k0)
a0800640:	8f5e0078 	lw	s8,120(k0)
a0800644:	8f5f007c 	lw	ra,124(k0)
a0800648:	8f5b0080 	lw	k1,128(k0)
a080064c:	409b6000 	mtc0	k1,c0_sr
a0800650:	8f5b0084 	lw	k1,132(k0)
a0800654:	03600011 	mthi	k1
a0800658:	8f5b0088 	lw	k1,136(k0)
a080065c:	03600013 	mtlo	k1
a0800660:	8f5b008c 	lw	k1,140(k0)
a0800664:	409b4000 	mtc0	k1,c0_badvaddr
a0800668:	8f5b0090 	lw	k1,144(k0)
a080066c:	409b6800 	mtc0	k1,c0_cause
a0800670:	8f5b0094 	lw	k1,148(k0)
a0800674:	409b7000 	mtc0	k1,c0_epc
a0800678:	00000000 	nop
a080067c:	401a6000 	mfc0	k0,c0_sr
a0800680:	00000000 	nop
a0800684:	375a0001 	ori	k0,k0,0x1
a0800688:	409a6000 	mtc0	k0,c0_sr
a080068c:	3c1a0002 	lui	k0,0x2
a0800690:	375a49f0 	ori	k0,k0,0x49f0
a0800694:	409a5800 	mtc0	k0,c0_compare
a0800698:	42000018 	eret
a080069c:	00000000 	nop

a08006a0 <handle_syscall>:
a08006a0:	0c201280 	jal	a0804a00 <system_call_helper>
a08006a4:	27bdfff0 	addiu	sp,sp,-16
a08006a8:	27bd0010 	addiu	sp,sp,16
a08006ac:	3c1aa081 	lui	k0,0xa081
a08006b0:	275aaba8 	addiu	k0,k0,-21592
a08006b4:	8f5a0000 	lw	k0,0(k0)
a08006b8:	235a009c 	addi	k0,k0,156
a08006bc:	8f400000 	lw	zero,0(k0)
a08006c0:	8f410004 	lw	at,4(k0)
a08006c4:	8f420008 	lw	v0,8(k0)
a08006c8:	8f43000c 	lw	v1,12(k0)
a08006cc:	8f440010 	lw	a0,16(k0)
a08006d0:	8f450014 	lw	a1,20(k0)
a08006d4:	8f460018 	lw	a2,24(k0)
a08006d8:	8f47001c 	lw	a3,28(k0)
a08006dc:	8f480020 	lw	t0,32(k0)
a08006e0:	8f490024 	lw	t1,36(k0)
a08006e4:	8f4a0028 	lw	t2,40(k0)
a08006e8:	8f4b002c 	lw	t3,44(k0)
a08006ec:	8f4c0030 	lw	t4,48(k0)
a08006f0:	8f4d0034 	lw	t5,52(k0)
a08006f4:	8f4e0038 	lw	t6,56(k0)
a08006f8:	8f4f003c 	lw	t7,60(k0)
a08006fc:	8f500040 	lw	s0,64(k0)
a0800700:	8f510044 	lw	s1,68(k0)
a0800704:	8f520048 	lw	s2,72(k0)
a0800708:	8f53004c 	lw	s3,76(k0)
a080070c:	8f540050 	lw	s4,80(k0)
a0800710:	8f550054 	lw	s5,84(k0)
a0800714:	8f560058 	lw	s6,88(k0)
a0800718:	8f57005c 	lw	s7,92(k0)
a080071c:	8f580060 	lw	t8,96(k0)
a0800720:	8f590064 	lw	t9,100(k0)
a0800724:	8f5c0070 	lw	gp,112(k0)
a0800728:	8f5d0074 	lw	sp,116(k0)
a080072c:	8f5e0078 	lw	s8,120(k0)
a0800730:	8f5f007c 	lw	ra,124(k0)
a0800734:	8f5b0080 	lw	k1,128(k0)
a0800738:	409b6000 	mtc0	k1,c0_sr
a080073c:	8f5b0084 	lw	k1,132(k0)
a0800740:	03600011 	mthi	k1
a0800744:	8f5b0088 	lw	k1,136(k0)
a0800748:	03600013 	mtlo	k1
a080074c:	8f5b008c 	lw	k1,140(k0)
a0800750:	409b4000 	mtc0	k1,c0_badvaddr
a0800754:	8f5b0090 	lw	k1,144(k0)
a0800758:	409b6800 	mtc0	k1,c0_cause
a080075c:	8f5b0094 	lw	k1,148(k0)
a0800760:	409b7000 	mtc0	k1,c0_epc
a0800764:	8f5b0094 	lw	k1,148(k0)
a0800768:	237b0004 	addi	k1,k1,4
a080076c:	409b7000 	mtc0	k1,c0_epc
a0800770:	00000000 	nop
a0800774:	401a6000 	mfc0	k0,c0_sr
a0800778:	00000000 	nop
a080077c:	375a0001 	ori	k0,k0,0x1
a0800780:	409a6000 	mtc0	k0,c0_sr
a0800784:	42000018 	eret
a0800788:	00000000 	nop

a080078c <handle_tlb>:
a080078c:	40046000 	mfc0	a0,c0_sr
a0800790:	40056800 	mfc0	a1,c0_cause
a0800794:	0c200d25 	jal	a0803494 <tlb_helper>
a0800798:	27bdfff8 	addiu	sp,sp,-8
a080079c:	27bd0008 	addiu	sp,sp,8
a08007a0:	3c1aa081 	lui	k0,0xa081
a08007a4:	275aaba8 	addiu	k0,k0,-21592
a08007a8:	8f5a0000 	lw	k0,0(k0)
a08007ac:	235a009c 	addi	k0,k0,156
a08007b0:	8f400000 	lw	zero,0(k0)
a08007b4:	8f410004 	lw	at,4(k0)
a08007b8:	8f420008 	lw	v0,8(k0)
a08007bc:	8f43000c 	lw	v1,12(k0)
a08007c0:	8f440010 	lw	a0,16(k0)
a08007c4:	8f450014 	lw	a1,20(k0)
a08007c8:	8f460018 	lw	a2,24(k0)
a08007cc:	8f47001c 	lw	a3,28(k0)
a08007d0:	8f480020 	lw	t0,32(k0)
a08007d4:	8f490024 	lw	t1,36(k0)
a08007d8:	8f4a0028 	lw	t2,40(k0)
a08007dc:	8f4b002c 	lw	t3,44(k0)
a08007e0:	8f4c0030 	lw	t4,48(k0)
a08007e4:	8f4d0034 	lw	t5,52(k0)
a08007e8:	8f4e0038 	lw	t6,56(k0)
a08007ec:	8f4f003c 	lw	t7,60(k0)
a08007f0:	8f500040 	lw	s0,64(k0)
a08007f4:	8f510044 	lw	s1,68(k0)
a08007f8:	8f520048 	lw	s2,72(k0)
a08007fc:	8f53004c 	lw	s3,76(k0)
a0800800:	8f540050 	lw	s4,80(k0)
a0800804:	8f550054 	lw	s5,84(k0)
a0800808:	8f560058 	lw	s6,88(k0)
a080080c:	8f57005c 	lw	s7,92(k0)
a0800810:	8f580060 	lw	t8,96(k0)
a0800814:	8f590064 	lw	t9,100(k0)
a0800818:	8f5c0070 	lw	gp,112(k0)
a080081c:	8f5d0074 	lw	sp,116(k0)
a0800820:	8f5e0078 	lw	s8,120(k0)
a0800824:	8f5f007c 	lw	ra,124(k0)
a0800828:	8f5b0080 	lw	k1,128(k0)
a080082c:	409b6000 	mtc0	k1,c0_sr
a0800830:	8f5b0084 	lw	k1,132(k0)
a0800834:	03600011 	mthi	k1
a0800838:	8f5b0088 	lw	k1,136(k0)
a080083c:	03600013 	mtlo	k1
a0800840:	8f5b008c 	lw	k1,140(k0)
a0800844:	409b4000 	mtc0	k1,c0_badvaddr
a0800848:	8f5b0090 	lw	k1,144(k0)
a080084c:	409b6800 	mtc0	k1,c0_cause
a0800850:	8f5b0094 	lw	k1,148(k0)
a0800854:	409b7000 	mtc0	k1,c0_epc
a0800858:	00000000 	nop
a080085c:	401a6000 	mfc0	k0,c0_sr
a0800860:	00000000 	nop
a0800864:	375a0001 	ori	k0,k0,0x1
a0800868:	409a6000 	mtc0	k0,c0_sr
a080086c:	42000018 	eret
a0800870:	00000000 	nop

a0800874 <handle_other>:
a0800874:	40046000 	mfc0	a0,c0_sr
a0800878:	40056800 	mfc0	a1,c0_cause
a080087c:	0c200ae6 	jal	a0802b98 <other_exception_handler>
a0800880:	27bdfff8 	addiu	sp,sp,-8
a0800884:	27bd0008 	addiu	sp,sp,8

a0800888 <get_IP>:
a0800888:	40026800 	mfc0	v0,c0_cause
a080088c:	00000000 	nop
a0800890:	3042ff00 	andi	v0,v0,0xff00
a0800894:	00021202 	srl	v0,v0,0x8

a0800898 <init_timer>:
a0800898:	40804800 	mtc0	zero,c0_count
a080089c:	3c1a0002 	lui	k0,0x2
a08008a0:	375a49f0 	ori	k0,k0,0x49f0
a08008a4:	409a5800 	mtc0	k0,c0_compare
a08008a8:	03e00008 	jr	ra
a08008ac:	00000000 	nop

a08008b0 <dis_interrupt>:
a08008b0:	40806000 	mtc0	zero,c0_sr
	...

a08008bc <get_cp0_status>:
a08008bc:	40026000 	mfc0	v0,c0_sr
a08008c0:	03e00008 	jr	ra
a08008c4:	00000000 	nop

a08008c8 <init_cp0_status>:
a08008c8:	40846000 	mtc0	a0,c0_sr
a08008cc:	03e00008 	jr	ra
a08008d0:	00000000 	nop

a08008d4 <get_cp0_compare>:
a08008d4:	40025800 	mfc0	v0,c0_compare
a08008d8:	03e00008 	jr	ra
a08008dc:	00000000 	nop

a08008e0 <get_cp0_epc>:
a08008e0:	40027000 	mfc0	v0,c0_epc
a08008e4:	03e00008 	jr	ra
a08008e8:	00000000 	nop

a08008ec <get_cp0_count>:
a08008ec:	40024800 	mfc0	v0,c0_count
a08008f0:	03e00008 	jr	ra
a08008f4:	00000000 	nop

a08008f8 <get_cp0_badvaddr>:
a08008f8:	40024000 	mfc0	v0,c0_badvaddr
a08008fc:	03e00008 	jr	ra
a0800900:	00000000 	nop

a0800904 <set_cp0_status>:
a0800904:	40846000 	mtc0	a0,c0_sr
a0800908:	03e00008 	jr	ra
a080090c:	00000000 	nop

a0800910 <TLBexception_handler_entry>:
a0800910:	3c1aa081 	lui	k0,0xa081
a0800914:	275aaba8 	addiu	k0,k0,-21592
a0800918:	8f5a0000 	lw	k0,0(k0)
a080091c:	8f5d0074 	lw	sp,116(k0)
a0800920:	3c1a8000 	lui	k0,0x8000
a0800924:	375a0180 	ori	k0,k0,0x180
a0800928:	03400008 	jr	k0
a080092c:	00000000 	nop

a0800930 <search_TLB>:
a0800930:	40845000 	mtc0	a0,c0_entryhi
a0800934:	42000008 	tlbp
a0800938:	40020000 	mfc0	v0,c0_index
a080093c:	03e00008 	jr	ra
a0800940:	00000000 	nop

a0800944 <set_EntryHi>:
a0800944:	40845000 	mtc0	a0,c0_entryhi
a0800948:	03e00008 	jr	ra
a080094c:	00000000 	nop

a0800950 <set_EntryLo0>:
a0800950:	40841000 	mtc0	a0,c0_entrylo0
a0800954:	03e00008 	jr	ra
a0800958:	00000000 	nop

a080095c <set_EntryLo1>:
a080095c:	40841800 	mtc0	a0,c0_entrylo1
a0800960:	03e00008 	jr	ra
a0800964:	00000000 	nop

a0800968 <set_cp0_Index>:
a0800968:	40840000 	mtc0	a0,c0_index
a080096c:	03e00008 	jr	ra
a0800970:	00000000 	nop

a0800974 <set_PageMask>:
a0800974:	40802800 	mtc0	zero,c0_pagemask
a0800978:	03e00008 	jr	ra
a080097c:	42000002 	tlbwi

a0800980 <invoke_syscall>:
a0800980:	0000000c 	syscall
a0800984:	03e00008 	jr	ra
a0800988:	00000000 	nop
a080098c:	00000000 	nop

a0800990 <port_write_ch>:
a0800990:	27bdffe0 	addiu	sp,sp,-32
a0800994:	afbf001c 	sw	ra,28(sp)
a0800998:	afbe0018 	sw	s8,24(sp)
a080099c:	03a0f021 	move	s8,sp
a08009a0:	00801021 	move	v0,a0
a08009a4:	a3c20020 	sb	v0,32(s8)
a08009a8:	3c028007 	lui	v0,0x8007
a08009ac:	3442ba00 	ori	v0,v0,0xba00
a08009b0:	afc20010 	sw	v0,16(s8)
a08009b4:	83c20020 	lb	v0,32(s8)
a08009b8:	8fc30010 	lw	v1,16(s8)
a08009bc:	00402021 	move	a0,v0
a08009c0:	0060f809 	jalr	v1
a08009c4:	00000000 	nop
a08009c8:	03c0e821 	move	sp,s8
a08009cc:	8fbf001c 	lw	ra,28(sp)
a08009d0:	8fbe0018 	lw	s8,24(sp)
a08009d4:	27bd0020 	addiu	sp,sp,32
a08009d8:	03e00008 	jr	ra
a08009dc:	00000000 	nop

a08009e0 <port_write>:
a08009e0:	27bdffe0 	addiu	sp,sp,-32
a08009e4:	afbf001c 	sw	ra,28(sp)
a08009e8:	afbe0018 	sw	s8,24(sp)
a08009ec:	03a0f021 	move	s8,sp
a08009f0:	afc40020 	sw	a0,32(s8)
a08009f4:	3c028007 	lui	v0,0x8007
a08009f8:	3442b980 	ori	v0,v0,0xb980
a08009fc:	afc20010 	sw	v0,16(s8)
a0800a00:	8fc20010 	lw	v0,16(s8)
a0800a04:	8fc40020 	lw	a0,32(s8)
a0800a08:	0040f809 	jalr	v0
a0800a0c:	00000000 	nop
a0800a10:	03c0e821 	move	sp,s8
a0800a14:	8fbf001c 	lw	ra,28(sp)
a0800a18:	8fbe0018 	lw	s8,24(sp)
a0800a1c:	27bd0020 	addiu	sp,sp,32
a0800a20:	03e00008 	jr	ra
a0800a24:	00000000 	nop
	...

a0800a30 <vt100_move_cursor>:
a0800a30:	27bdffe8 	addiu	sp,sp,-24
a0800a34:	afbf0014 	sw	ra,20(sp)
a0800a38:	afbe0010 	sw	s8,16(sp)
a0800a3c:	03a0f021 	move	s8,sp
a0800a40:	afc40018 	sw	a0,24(s8)
a0800a44:	afc5001c 	sw	a1,28(s8)
a0800a48:	3c02a081 	lui	v0,0xa081
a0800a4c:	244494d0 	addiu	a0,v0,-27440
a0800a50:	2405001b 	li	a1,27
a0800a54:	8fc6001c 	lw	a2,28(s8)
a0800a58:	8fc70018 	lw	a3,24(s8)
a0800a5c:	0c201959 	jal	a0806564 <printk>
a0800a60:	00000000 	nop
a0800a64:	03c0e821 	move	sp,s8
a0800a68:	8fbf0014 	lw	ra,20(sp)
a0800a6c:	8fbe0010 	lw	s8,16(sp)
a0800a70:	27bd0018 	addiu	sp,sp,24
a0800a74:	03e00008 	jr	ra
a0800a78:	00000000 	nop

a0800a7c <vt100_clear>:
a0800a7c:	27bdffe8 	addiu	sp,sp,-24
a0800a80:	afbf0014 	sw	ra,20(sp)
a0800a84:	afbe0010 	sw	s8,16(sp)
a0800a88:	03a0f021 	move	s8,sp
a0800a8c:	3c02a081 	lui	v0,0xa081
a0800a90:	244494dc 	addiu	a0,v0,-27428
a0800a94:	2405001b 	li	a1,27
a0800a98:	0c201959 	jal	a0806564 <printk>
a0800a9c:	00000000 	nop
a0800aa0:	03c0e821 	move	sp,s8
a0800aa4:	8fbf0014 	lw	ra,20(sp)
a0800aa8:	8fbe0010 	lw	s8,16(sp)
a0800aac:	27bd0018 	addiu	sp,sp,24
a0800ab0:	03e00008 	jr	ra
a0800ab4:	00000000 	nop

a0800ab8 <vt100_hidden_cursor>:
a0800ab8:	27bdffe8 	addiu	sp,sp,-24
a0800abc:	afbf0014 	sw	ra,20(sp)
a0800ac0:	afbe0010 	sw	s8,16(sp)
a0800ac4:	03a0f021 	move	s8,sp
a0800ac8:	3c02a081 	lui	v0,0xa081
a0800acc:	244494e4 	addiu	a0,v0,-27420
a0800ad0:	2405001b 	li	a1,27
a0800ad4:	0c201959 	jal	a0806564 <printk>
a0800ad8:	00000000 	nop
a0800adc:	03c0e821 	move	sp,s8
a0800ae0:	8fbf0014 	lw	ra,20(sp)
a0800ae4:	8fbe0010 	lw	s8,16(sp)
a0800ae8:	27bd0018 	addiu	sp,sp,24
a0800aec:	03e00008 	jr	ra
a0800af0:	00000000 	nop

a0800af4 <screen_scroll>:
a0800af4:	27bdfff0 	addiu	sp,sp,-16
a0800af8:	afbe000c 	sw	s8,12(sp)
a0800afc:	03a0f021 	move	s8,sp
a0800b00:	afc40010 	sw	a0,16(s8)
a0800b04:	afc50014 	sw	a1,20(s8)
a0800b08:	8fc20010 	lw	v0,16(s8)
a0800b0c:	afc20004 	sw	v0,4(s8)
a0800b10:	082002dd 	j	a0800b74 <screen_scroll+0x80>
a0800b14:	00000000 	nop
a0800b18:	afc00000 	sw	zero,0(s8)
a0800b1c:	082002d6 	j	a0800b58 <screen_scroll+0x64>
a0800b20:	00000000 	nop
a0800b24:	8fc20004 	lw	v0,4(s8)
a0800b28:	00021900 	sll	v1,v0,0x4
a0800b2c:	00031080 	sll	v0,v1,0x2
a0800b30:	00621821 	addu	v1,v1,v0
a0800b34:	8fc20000 	lw	v0,0(s8)
a0800b38:	00621821 	addu	v1,v1,v0
a0800b3c:	3c02a081 	lui	v0,0xa081
a0800b40:	2442b540 	addiu	v0,v0,-19136
a0800b44:	00621021 	addu	v0,v1,v0
a0800b48:	a0400000 	sb	zero,0(v0)
a0800b4c:	8fc20000 	lw	v0,0(s8)
a0800b50:	24420001 	addiu	v0,v0,1
a0800b54:	afc20000 	sw	v0,0(s8)
a0800b58:	8fc20000 	lw	v0,0(s8)
a0800b5c:	28420050 	slti	v0,v0,80
a0800b60:	1440fff0 	bnez	v0,a0800b24 <screen_scroll+0x30>
a0800b64:	00000000 	nop
a0800b68:	8fc20004 	lw	v0,4(s8)
a0800b6c:	24420001 	addiu	v0,v0,1
a0800b70:	afc20004 	sw	v0,4(s8)
a0800b74:	8fc20004 	lw	v0,4(s8)
a0800b78:	8fc30014 	lw	v1,20(s8)
a0800b7c:	0062102a 	slt	v0,v1,v0
a0800b80:	1040ffe5 	beqz	v0,a0800b18 <screen_scroll+0x24>
a0800b84:	00000000 	nop
a0800b88:	8fc20010 	lw	v0,16(s8)
a0800b8c:	afc20004 	sw	v0,4(s8)
a0800b90:	08200319 	j	a0800c64 <screen_scroll+0x170>
a0800b94:	00000000 	nop
a0800b98:	afc00000 	sw	zero,0(s8)
a0800b9c:	08200312 	j	a0800c48 <screen_scroll+0x154>
a0800ba0:	00000000 	nop
a0800ba4:	8fc30004 	lw	v1,4(s8)
a0800ba8:	8fc20014 	lw	v0,20(s8)
a0800bac:	1462000e 	bne	v1,v0,a0800be8 <screen_scroll+0xf4>
a0800bb0:	00000000 	nop
a0800bb4:	8fc20004 	lw	v0,4(s8)
a0800bb8:	00021900 	sll	v1,v0,0x4
a0800bbc:	00031080 	sll	v0,v1,0x2
a0800bc0:	00621821 	addu	v1,v1,v0
a0800bc4:	8fc20000 	lw	v0,0(s8)
a0800bc8:	00621821 	addu	v1,v1,v0
a0800bcc:	3c02a081 	lui	v0,0xa081
a0800bd0:	2442abe0 	addiu	v0,v0,-21536
a0800bd4:	00621821 	addu	v1,v1,v0
a0800bd8:	24020020 	li	v0,32
a0800bdc:	a0620000 	sb	v0,0(v1)
a0800be0:	0820030f 	j	a0800c3c <screen_scroll+0x148>
a0800be4:	00000000 	nop
a0800be8:	8fc20004 	lw	v0,4(s8)
a0800bec:	00021900 	sll	v1,v0,0x4
a0800bf0:	00031080 	sll	v0,v1,0x2
a0800bf4:	00621821 	addu	v1,v1,v0
a0800bf8:	8fc20000 	lw	v0,0(s8)
a0800bfc:	00622021 	addu	a0,v1,v0
a0800c00:	8fc20004 	lw	v0,4(s8)
a0800c04:	24420001 	addiu	v0,v0,1
a0800c08:	00021900 	sll	v1,v0,0x4
a0800c0c:	00031080 	sll	v0,v1,0x2
a0800c10:	00621821 	addu	v1,v1,v0
a0800c14:	8fc20000 	lw	v0,0(s8)
a0800c18:	00621821 	addu	v1,v1,v0
a0800c1c:	3c02a081 	lui	v0,0xa081
a0800c20:	2442abe0 	addiu	v0,v0,-21536
a0800c24:	00621021 	addu	v0,v1,v0
a0800c28:	80430000 	lb	v1,0(v0)
a0800c2c:	3c02a081 	lui	v0,0xa081
a0800c30:	2442abe0 	addiu	v0,v0,-21536
a0800c34:	00821021 	addu	v0,a0,v0
a0800c38:	a0430000 	sb	v1,0(v0)
a0800c3c:	8fc20000 	lw	v0,0(s8)
a0800c40:	24420001 	addiu	v0,v0,1
a0800c44:	afc20000 	sw	v0,0(s8)
a0800c48:	8fc20000 	lw	v0,0(s8)
a0800c4c:	28420050 	slti	v0,v0,80
a0800c50:	1440ffd4 	bnez	v0,a0800ba4 <screen_scroll+0xb0>
a0800c54:	00000000 	nop
a0800c58:	8fc20004 	lw	v0,4(s8)
a0800c5c:	24420001 	addiu	v0,v0,1
a0800c60:	afc20004 	sw	v0,4(s8)
a0800c64:	8fc20004 	lw	v0,4(s8)
a0800c68:	8fc30014 	lw	v1,20(s8)
a0800c6c:	0062102a 	slt	v0,v1,v0
a0800c70:	1040ffc9 	beqz	v0,a0800b98 <screen_scroll+0xa4>
a0800c74:	00000000 	nop
a0800c78:	03c0e821 	move	sp,s8
a0800c7c:	8fbe000c 	lw	s8,12(sp)
a0800c80:	27bd0010 	addiu	sp,sp,16
a0800c84:	03e00008 	jr	ra
a0800c88:	00000000 	nop

a0800c8c <screen_write_ch>:
a0800c8c:	27bdffe8 	addiu	sp,sp,-24
a0800c90:	afbf0014 	sw	ra,20(sp)
a0800c94:	afbe0010 	sw	s8,16(sp)
a0800c98:	03a0f021 	move	s8,sp
a0800c9c:	00801021 	move	v0,a0
a0800ca0:	a3c20018 	sb	v0,24(s8)
a0800ca4:	83c30018 	lb	v1,24(s8)
a0800ca8:	2402000a 	li	v0,10
a0800cac:	1462000a 	bne	v1,v0,a0800cd8 <screen_write_ch+0x4c>
a0800cb0:	00000000 	nop
a0800cb4:	3c02a081 	lui	v0,0xa081
a0800cb8:	ac40ab90 	sw	zero,-21616(v0)
a0800cbc:	3c02a081 	lui	v0,0xa081
a0800cc0:	8c42ab94 	lw	v0,-21612(v0)
a0800cc4:	24430001 	addiu	v1,v0,1
a0800cc8:	3c02a081 	lui	v0,0xa081
a0800ccc:	ac43ab94 	sw	v1,-21612(v0)
a0800cd0:	08200371 	j	a0800dc4 <screen_write_ch+0x138>
a0800cd4:	00000000 	nop
a0800cd8:	83c30018 	lb	v1,24(s8)
a0800cdc:	24020008 	li	v0,8
a0800ce0:	14620019 	bne	v1,v0,a0800d48 <screen_write_ch+0xbc>
a0800ce4:	00000000 	nop
a0800ce8:	3c02a081 	lui	v0,0xa081
a0800cec:	8c42ab90 	lw	v0,-21616(v0)
a0800cf0:	18400034 	blez	v0,a0800dc4 <screen_write_ch+0x138>
a0800cf4:	00000000 	nop
a0800cf8:	3c02a081 	lui	v0,0xa081
a0800cfc:	8c42ab90 	lw	v0,-21616(v0)
a0800d00:	2443ffff 	addiu	v1,v0,-1
a0800d04:	3c02a081 	lui	v0,0xa081
a0800d08:	ac43ab90 	sw	v1,-21616(v0)
a0800d0c:	3c02a081 	lui	v0,0xa081
a0800d10:	8c42ab94 	lw	v0,-21612(v0)
a0800d14:	00021900 	sll	v1,v0,0x4
a0800d18:	00031080 	sll	v0,v1,0x2
a0800d1c:	00621821 	addu	v1,v1,v0
a0800d20:	3c02a081 	lui	v0,0xa081
a0800d24:	8c42ab90 	lw	v0,-21616(v0)
a0800d28:	00621821 	addu	v1,v1,v0
a0800d2c:	3c02a081 	lui	v0,0xa081
a0800d30:	2442abe0 	addiu	v0,v0,-21536
a0800d34:	00621821 	addu	v1,v1,v0
a0800d38:	24020020 	li	v0,32
a0800d3c:	a0620000 	sb	v0,0(v1)
a0800d40:	08200371 	j	a0800dc4 <screen_write_ch+0x138>
a0800d44:	00000000 	nop
a0800d48:	83c30018 	lb	v1,24(s8)
a0800d4c:	2402000d 	li	v0,13
a0800d50:	1462000a 	bne	v1,v0,a0800d7c <screen_write_ch+0xf0>
a0800d54:	00000000 	nop
a0800d58:	3c02a081 	lui	v0,0xa081
a0800d5c:	ac40ab90 	sw	zero,-21616(v0)
a0800d60:	3c02a081 	lui	v0,0xa081
a0800d64:	8c42ab94 	lw	v0,-21612(v0)
a0800d68:	24430001 	addiu	v1,v0,1
a0800d6c:	3c02a081 	lui	v0,0xa081
a0800d70:	ac43ab94 	sw	v1,-21612(v0)
a0800d74:	08200371 	j	a0800dc4 <screen_write_ch+0x138>
a0800d78:	00000000 	nop
a0800d7c:	3c02a081 	lui	v0,0xa081
a0800d80:	8c42ab94 	lw	v0,-21612(v0)
a0800d84:	00021900 	sll	v1,v0,0x4
a0800d88:	00031080 	sll	v0,v1,0x2
a0800d8c:	00621821 	addu	v1,v1,v0
a0800d90:	3c02a081 	lui	v0,0xa081
a0800d94:	8c42ab90 	lw	v0,-21616(v0)
a0800d98:	00621821 	addu	v1,v1,v0
a0800d9c:	3c02a081 	lui	v0,0xa081
a0800da0:	2442abe0 	addiu	v0,v0,-21536
a0800da4:	00621821 	addu	v1,v1,v0
a0800da8:	93c20018 	lbu	v0,24(s8)
a0800dac:	a0620000 	sb	v0,0(v1)
a0800db0:	3c02a081 	lui	v0,0xa081
a0800db4:	8c42ab90 	lw	v0,-21616(v0)
a0800db8:	24430001 	addiu	v1,v0,1
a0800dbc:	3c02a081 	lui	v0,0xa081
a0800dc0:	ac43ab90 	sw	v1,-21616(v0)
a0800dc4:	3c02a081 	lui	v0,0xa081
a0800dc8:	8c42ab90 	lw	v0,-21616(v0)
a0800dcc:	04410003 	bgez	v0,a0800ddc <screen_write_ch+0x150>
a0800dd0:	00000000 	nop
a0800dd4:	3c02a081 	lui	v0,0xa081
a0800dd8:	ac40ab90 	sw	zero,-21616(v0)
a0800ddc:	3c02a081 	lui	v0,0xa081
a0800de0:	8c42ab90 	lw	v0,-21616(v0)
a0800de4:	28420050 	slti	v0,v0,80
a0800de8:	14400008 	bnez	v0,a0800e0c <screen_write_ch+0x180>
a0800dec:	00000000 	nop
a0800df0:	3c02a081 	lui	v0,0xa081
a0800df4:	8c42ab94 	lw	v0,-21612(v0)
a0800df8:	24430001 	addiu	v1,v0,1
a0800dfc:	3c02a081 	lui	v0,0xa081
a0800e00:	ac43ab94 	sw	v1,-21612(v0)
a0800e04:	3c02a081 	lui	v0,0xa081
a0800e08:	ac40ab90 	sw	zero,-21616(v0)
a0800e0c:	3c02a081 	lui	v0,0xa081
a0800e10:	8c42ab94 	lw	v0,-21612(v0)
a0800e14:	04410003 	bgez	v0,a0800e24 <screen_write_ch+0x198>
a0800e18:	00000000 	nop
a0800e1c:	3c02a081 	lui	v0,0xa081
a0800e20:	ac40ab94 	sw	zero,-21612(v0)
a0800e24:	3c02a081 	lui	v0,0xa081
a0800e28:	8c42ab94 	lw	v0,-21612(v0)
a0800e2c:	2842001e 	slti	v0,v0,30
a0800e30:	1440000a 	bnez	v0,a0800e5c <screen_write_ch+0x1d0>
a0800e34:	00000000 	nop
a0800e38:	24040010 	li	a0,16
a0800e3c:	2405001d 	li	a1,29
a0800e40:	0c2002bd 	jal	a0800af4 <screen_scroll>
a0800e44:	00000000 	nop
a0800e48:	3c02a081 	lui	v0,0xa081
a0800e4c:	ac40ab90 	sw	zero,-21616(v0)
a0800e50:	3c03a081 	lui	v1,0xa081
a0800e54:	2402001d 	li	v0,29
a0800e58:	ac62ab94 	sw	v0,-21612(v1)
a0800e5c:	03c0e821 	move	sp,s8
a0800e60:	8fbf0014 	lw	ra,20(sp)
a0800e64:	8fbe0010 	lw	s8,16(sp)
a0800e68:	27bd0018 	addiu	sp,sp,24
a0800e6c:	03e00008 	jr	ra
a0800e70:	00000000 	nop

a0800e74 <init_screen>:
a0800e74:	27bdffe8 	addiu	sp,sp,-24
a0800e78:	afbf0014 	sw	ra,20(sp)
a0800e7c:	afbe0010 	sw	s8,16(sp)
a0800e80:	03a0f021 	move	s8,sp
a0800e84:	0c2002ae 	jal	a0800ab8 <vt100_hidden_cursor>
a0800e88:	00000000 	nop
a0800e8c:	0c20029f 	jal	a0800a7c <vt100_clear>
a0800e90:	00000000 	nop
a0800e94:	00002021 	move	a0,zero
a0800e98:	2405001d 	li	a1,29
a0800e9c:	0c2003af 	jal	a0800ebc <screen_clear>
a0800ea0:	00000000 	nop
a0800ea4:	03c0e821 	move	sp,s8
a0800ea8:	8fbf0014 	lw	ra,20(sp)
a0800eac:	8fbe0010 	lw	s8,16(sp)
a0800eb0:	27bd0018 	addiu	sp,sp,24
a0800eb4:	03e00008 	jr	ra
a0800eb8:	00000000 	nop

a0800ebc <screen_clear>:
a0800ebc:	27bdffe0 	addiu	sp,sp,-32
a0800ec0:	afbf001c 	sw	ra,28(sp)
a0800ec4:	afbe0018 	sw	s8,24(sp)
a0800ec8:	03a0f021 	move	s8,sp
a0800ecc:	afc40020 	sw	a0,32(s8)
a0800ed0:	afc50024 	sw	a1,36(s8)
a0800ed4:	8fc20020 	lw	v0,32(s8)
a0800ed8:	afc20014 	sw	v0,20(s8)
a0800edc:	082003db 	j	a0800f6c <screen_clear+0xb0>
a0800ee0:	00000000 	nop
a0800ee4:	afc00010 	sw	zero,16(s8)
a0800ee8:	082003d4 	j	a0800f50 <screen_clear+0x94>
a0800eec:	00000000 	nop
a0800ef0:	8fc20014 	lw	v0,20(s8)
a0800ef4:	00021900 	sll	v1,v0,0x4
a0800ef8:	00031080 	sll	v0,v1,0x2
a0800efc:	00621821 	addu	v1,v1,v0
a0800f00:	8fc20010 	lw	v0,16(s8)
a0800f04:	00621821 	addu	v1,v1,v0
a0800f08:	3c02a081 	lui	v0,0xa081
a0800f0c:	2442abe0 	addiu	v0,v0,-21536
a0800f10:	00621821 	addu	v1,v1,v0
a0800f14:	24020020 	li	v0,32
a0800f18:	a0620000 	sb	v0,0(v1)
a0800f1c:	8fc20014 	lw	v0,20(s8)
a0800f20:	00021900 	sll	v1,v0,0x4
a0800f24:	00031080 	sll	v0,v1,0x2
a0800f28:	00621821 	addu	v1,v1,v0
a0800f2c:	8fc20010 	lw	v0,16(s8)
a0800f30:	00621821 	addu	v1,v1,v0
a0800f34:	3c02a081 	lui	v0,0xa081
a0800f38:	2442b540 	addiu	v0,v0,-19136
a0800f3c:	00621021 	addu	v0,v1,v0
a0800f40:	a0400000 	sb	zero,0(v0)
a0800f44:	8fc20010 	lw	v0,16(s8)
a0800f48:	24420001 	addiu	v0,v0,1
a0800f4c:	afc20010 	sw	v0,16(s8)
a0800f50:	8fc20010 	lw	v0,16(s8)
a0800f54:	28420050 	slti	v0,v0,80
a0800f58:	1440ffe5 	bnez	v0,a0800ef0 <screen_clear+0x34>
a0800f5c:	00000000 	nop
a0800f60:	8fc20014 	lw	v0,20(s8)
a0800f64:	24420001 	addiu	v0,v0,1
a0800f68:	afc20014 	sw	v0,20(s8)
a0800f6c:	8fc20014 	lw	v0,20(s8)
a0800f70:	8fc30024 	lw	v1,36(s8)
a0800f74:	0062102a 	slt	v0,v1,v0
a0800f78:	1040ffda 	beqz	v0,a0800ee4 <screen_clear+0x28>
a0800f7c:	00000000 	nop
a0800f80:	3c02a081 	lui	v0,0xa081
a0800f84:	ac40ab90 	sw	zero,-21616(v0)
a0800f88:	3c02a081 	lui	v0,0xa081
a0800f8c:	ac40ab94 	sw	zero,-21612(v0)
a0800f90:	0c20041e 	jal	a0801078 <screen_reflush>
a0800f94:	00000000 	nop
a0800f98:	03c0e821 	move	sp,s8
a0800f9c:	8fbf001c 	lw	ra,28(sp)
a0800fa0:	8fbe0018 	lw	s8,24(sp)
a0800fa4:	27bd0020 	addiu	sp,sp,32
a0800fa8:	03e00008 	jr	ra
a0800fac:	00000000 	nop

a0800fb0 <screen_move_cursor>:
a0800fb0:	27bdfff8 	addiu	sp,sp,-8
a0800fb4:	afbe0004 	sw	s8,4(sp)
a0800fb8:	03a0f021 	move	s8,sp
a0800fbc:	afc40008 	sw	a0,8(s8)
a0800fc0:	afc5000c 	sw	a1,12(s8)
a0800fc4:	3c03a081 	lui	v1,0xa081
a0800fc8:	8fc20008 	lw	v0,8(s8)
a0800fcc:	ac62ab90 	sw	v0,-21616(v1)
a0800fd0:	3c03a081 	lui	v1,0xa081
a0800fd4:	8fc2000c 	lw	v0,12(s8)
a0800fd8:	ac62ab94 	sw	v0,-21612(v1)
a0800fdc:	03c0e821 	move	sp,s8
a0800fe0:	8fbe0004 	lw	s8,4(sp)
a0800fe4:	27bd0008 	addiu	sp,sp,8
a0800fe8:	03e00008 	jr	ra
a0800fec:	00000000 	nop

a0800ff0 <screen_write>:
a0800ff0:	27bdffe0 	addiu	sp,sp,-32
a0800ff4:	afbf001c 	sw	ra,28(sp)
a0800ff8:	afbe0018 	sw	s8,24(sp)
a0800ffc:	03a0f021 	move	s8,sp
a0801000:	afc40020 	sw	a0,32(s8)
a0801004:	afc00014 	sw	zero,20(s8)
a0801008:	8fc40020 	lw	a0,32(s8)
a080100c:	0c2016a4 	jal	a0805a90 <strlen>
a0801010:	00000000 	nop
a0801014:	afc20010 	sw	v0,16(s8)
a0801018:	afc00014 	sw	zero,20(s8)
a080101c:	08200413 	j	a080104c <screen_write+0x5c>
a0801020:	00000000 	nop
a0801024:	8fc30014 	lw	v1,20(s8)
a0801028:	8fc20020 	lw	v0,32(s8)
a080102c:	00431021 	addu	v0,v0,v1
a0801030:	80420000 	lb	v0,0(v0)
a0801034:	00402021 	move	a0,v0
a0801038:	0c200323 	jal	a0800c8c <screen_write_ch>
a080103c:	00000000 	nop
a0801040:	8fc20014 	lw	v0,20(s8)
a0801044:	24420001 	addiu	v0,v0,1
a0801048:	afc20014 	sw	v0,20(s8)
a080104c:	8fc20014 	lw	v0,20(s8)
a0801050:	8fc30010 	lw	v1,16(s8)
a0801054:	0043102a 	slt	v0,v0,v1
a0801058:	1440fff2 	bnez	v0,a0801024 <screen_write+0x34>
a080105c:	00000000 	nop
a0801060:	03c0e821 	move	sp,s8
a0801064:	8fbf001c 	lw	ra,28(sp)
a0801068:	8fbe0018 	lw	s8,24(sp)
a080106c:	27bd0020 	addiu	sp,sp,32
a0801070:	03e00008 	jr	ra
a0801074:	00000000 	nop

a0801078 <screen_reflush>:
a0801078:	27bdffe0 	addiu	sp,sp,-32
a080107c:	afbf001c 	sw	ra,28(sp)
a0801080:	afbe0018 	sw	s8,24(sp)
a0801084:	03a0f021 	move	s8,sp
a0801088:	afc00014 	sw	zero,20(s8)
a080108c:	08200471 	j	a08011c4 <screen_reflush+0x14c>
a0801090:	00000000 	nop
a0801094:	afc00010 	sw	zero,16(s8)
a0801098:	0820046a 	j	a08011a8 <screen_reflush+0x130>
a080109c:	00000000 	nop
a08010a0:	8fc20014 	lw	v0,20(s8)
a08010a4:	00021900 	sll	v1,v0,0x4
a08010a8:	00031080 	sll	v0,v1,0x2
a08010ac:	00621821 	addu	v1,v1,v0
a08010b0:	8fc20010 	lw	v0,16(s8)
a08010b4:	00621821 	addu	v1,v1,v0
a08010b8:	3c02a081 	lui	v0,0xa081
a08010bc:	2442abe0 	addiu	v0,v0,-21536
a08010c0:	00621021 	addu	v0,v1,v0
a08010c4:	80440000 	lb	a0,0(v0)
a08010c8:	8fc20014 	lw	v0,20(s8)
a08010cc:	00021900 	sll	v1,v0,0x4
a08010d0:	00031080 	sll	v0,v1,0x2
a08010d4:	00621821 	addu	v1,v1,v0
a08010d8:	8fc20010 	lw	v0,16(s8)
a08010dc:	00621821 	addu	v1,v1,v0
a08010e0:	3c02a081 	lui	v0,0xa081
a08010e4:	2442b540 	addiu	v0,v0,-19136
a08010e8:	00621021 	addu	v0,v1,v0
a08010ec:	80420000 	lb	v0,0(v0)
a08010f0:	1082002a 	beq	a0,v0,a080119c <screen_reflush+0x124>
a08010f4:	00000000 	nop
a08010f8:	8fc20010 	lw	v0,16(s8)
a08010fc:	24430001 	addiu	v1,v0,1
a0801100:	8fc20014 	lw	v0,20(s8)
a0801104:	24420001 	addiu	v0,v0,1
a0801108:	00602021 	move	a0,v1
a080110c:	00402821 	move	a1,v0
a0801110:	0c20028c 	jal	a0800a30 <vt100_move_cursor>
a0801114:	00000000 	nop
a0801118:	8fc20014 	lw	v0,20(s8)
a080111c:	00021900 	sll	v1,v0,0x4
a0801120:	00031080 	sll	v0,v1,0x2
a0801124:	00621821 	addu	v1,v1,v0
a0801128:	8fc20010 	lw	v0,16(s8)
a080112c:	00621821 	addu	v1,v1,v0
a0801130:	3c02a081 	lui	v0,0xa081
a0801134:	2442abe0 	addiu	v0,v0,-21536
a0801138:	00621021 	addu	v0,v1,v0
a080113c:	80420000 	lb	v0,0(v0)
a0801140:	00402021 	move	a0,v0
a0801144:	0c200264 	jal	a0800990 <port_write_ch>
a0801148:	00000000 	nop
a080114c:	8fc20014 	lw	v0,20(s8)
a0801150:	00021900 	sll	v1,v0,0x4
a0801154:	00031080 	sll	v0,v1,0x2
a0801158:	00621821 	addu	v1,v1,v0
a080115c:	8fc20010 	lw	v0,16(s8)
a0801160:	00622021 	addu	a0,v1,v0
a0801164:	8fc20014 	lw	v0,20(s8)
a0801168:	00021900 	sll	v1,v0,0x4
a080116c:	00031080 	sll	v0,v1,0x2
a0801170:	00621821 	addu	v1,v1,v0
a0801174:	8fc20010 	lw	v0,16(s8)
a0801178:	00621821 	addu	v1,v1,v0
a080117c:	3c02a081 	lui	v0,0xa081
a0801180:	2442abe0 	addiu	v0,v0,-21536
a0801184:	00621021 	addu	v0,v1,v0
a0801188:	80430000 	lb	v1,0(v0)
a080118c:	3c02a081 	lui	v0,0xa081
a0801190:	2442b540 	addiu	v0,v0,-19136
a0801194:	00821021 	addu	v0,a0,v0
a0801198:	a0430000 	sb	v1,0(v0)
a080119c:	8fc20010 	lw	v0,16(s8)
a08011a0:	24420001 	addiu	v0,v0,1
a08011a4:	afc20010 	sw	v0,16(s8)
a08011a8:	8fc20010 	lw	v0,16(s8)
a08011ac:	28420050 	slti	v0,v0,80
a08011b0:	1440ffbb 	bnez	v0,a08010a0 <screen_reflush+0x28>
a08011b4:	00000000 	nop
a08011b8:	8fc20014 	lw	v0,20(s8)
a08011bc:	24420001 	addiu	v0,v0,1
a08011c0:	afc20014 	sw	v0,20(s8)
a08011c4:	8fc20014 	lw	v0,20(s8)
a08011c8:	2842001e 	slti	v0,v0,30
a08011cc:	1440ffb1 	bnez	v0,a0801094 <screen_reflush+0x1c>
a08011d0:	00000000 	nop
a08011d4:	3c02a081 	lui	v0,0xa081
a08011d8:	8c43ab90 	lw	v1,-21616(v0)
a08011dc:	3c02a081 	lui	v0,0xa081
a08011e0:	8c42ab94 	lw	v0,-21612(v0)
a08011e4:	00602021 	move	a0,v1
a08011e8:	00402821 	move	a1,v0
a08011ec:	0c20028c 	jal	a0800a30 <vt100_move_cursor>
a08011f0:	00000000 	nop
a08011f4:	03c0e821 	move	sp,s8
a08011f8:	8fbf001c 	lw	ra,28(sp)
a08011fc:	8fbe0018 	lw	s8,24(sp)
a0801200:	27bd0020 	addiu	sp,sp,32
a0801204:	03e00008 	jr	ra
a0801208:	00000000 	nop
a080120c:	00000000 	nop

a0801210 <reg_read_32>:
a0801210:	27bdfff8 	addiu	sp,sp,-8
a0801214:	afbe0004 	sw	s8,4(sp)
a0801218:	03a0f021 	move	s8,sp
a080121c:	afc40008 	sw	a0,8(s8)
a0801220:	8fc20008 	lw	v0,8(s8)
a0801224:	8c420000 	lw	v0,0(v0)
a0801228:	03c0e821 	move	sp,s8
a080122c:	8fbe0004 	lw	s8,4(sp)
a0801230:	27bd0008 	addiu	sp,sp,8
a0801234:	03e00008 	jr	ra
a0801238:	00000000 	nop

a080123c <read_register>:
a080123c:	27bdfff0 	addiu	sp,sp,-16
a0801240:	afbe000c 	sw	s8,12(sp)
a0801244:	03a0f021 	move	s8,sp
a0801248:	afc40010 	sw	a0,16(s8)
a080124c:	afc50014 	sw	a1,20(s8)
a0801250:	8fc30010 	lw	v1,16(s8)
a0801254:	8fc20014 	lw	v0,20(s8)
a0801258:	00621021 	addu	v0,v1,v0
a080125c:	afc20004 	sw	v0,4(s8)
a0801260:	8fc20004 	lw	v0,4(s8)
a0801264:	8c420000 	lw	v0,0(v0)
a0801268:	afc20000 	sw	v0,0(s8)
a080126c:	8fc20000 	lw	v0,0(s8)
a0801270:	03c0e821 	move	sp,s8
a0801274:	8fbe000c 	lw	s8,12(sp)
a0801278:	27bd0010 	addiu	sp,sp,16
a080127c:	03e00008 	jr	ra
a0801280:	00000000 	nop

a0801284 <reg_write_32>:
a0801284:	27bdfff8 	addiu	sp,sp,-8
a0801288:	afbe0004 	sw	s8,4(sp)
a080128c:	03a0f021 	move	s8,sp
a0801290:	afc40008 	sw	a0,8(s8)
a0801294:	afc5000c 	sw	a1,12(s8)
a0801298:	8fc30008 	lw	v1,8(s8)
a080129c:	8fc2000c 	lw	v0,12(s8)
a08012a0:	ac620000 	sw	v0,0(v1)
a08012a4:	03c0e821 	move	sp,s8
a08012a8:	8fbe0004 	lw	s8,4(sp)
a08012ac:	27bd0008 	addiu	sp,sp,8
a08012b0:	03e00008 	jr	ra
a08012b4:	00000000 	nop

a08012b8 <gmac_get_mac_addr>:
a08012b8:	27bdffe0 	addiu	sp,sp,-32
a08012bc:	afbf001c 	sw	ra,28(sp)
a08012c0:	afbe0018 	sw	s8,24(sp)
a08012c4:	03a0f021 	move	s8,sp
a08012c8:	afc40020 	sw	a0,32(s8)
a08012cc:	3c04bfe1 	lui	a0,0xbfe1
a08012d0:	24050044 	li	a1,68
a08012d4:	0c20048f 	jal	a080123c <read_register>
a08012d8:	00000000 	nop
a08012dc:	afc20010 	sw	v0,16(s8)
a08012e0:	8fc20010 	lw	v0,16(s8)
a08012e4:	304300ff 	andi	v1,v0,0xff
a08012e8:	8fc20020 	lw	v0,32(s8)
a08012ec:	a0430000 	sb	v1,0(v0)
a08012f0:	8fc20020 	lw	v0,32(s8)
a08012f4:	24430001 	addiu	v1,v0,1
a08012f8:	8fc20010 	lw	v0,16(s8)
a08012fc:	00021202 	srl	v0,v0,0x8
a0801300:	304200ff 	andi	v0,v0,0xff
a0801304:	a0620000 	sb	v0,0(v1)
a0801308:	8fc20020 	lw	v0,32(s8)
a080130c:	24430002 	addiu	v1,v0,2
a0801310:	8fc20010 	lw	v0,16(s8)
a0801314:	00021402 	srl	v0,v0,0x10
a0801318:	304200ff 	andi	v0,v0,0xff
a080131c:	a0620000 	sb	v0,0(v1)
a0801320:	8fc20020 	lw	v0,32(s8)
a0801324:	24430003 	addiu	v1,v0,3
a0801328:	8fc20010 	lw	v0,16(s8)
a080132c:	00021602 	srl	v0,v0,0x18
a0801330:	304200ff 	andi	v0,v0,0xff
a0801334:	a0620000 	sb	v0,0(v1)
a0801338:	3c04bfe1 	lui	a0,0xbfe1
a080133c:	24050040 	li	a1,64
a0801340:	0c20048f 	jal	a080123c <read_register>
a0801344:	00000000 	nop
a0801348:	afc20010 	sw	v0,16(s8)
a080134c:	8fc20020 	lw	v0,32(s8)
a0801350:	24430004 	addiu	v1,v0,4
a0801354:	8fc20010 	lw	v0,16(s8)
a0801358:	304200ff 	andi	v0,v0,0xff
a080135c:	a0620000 	sb	v0,0(v1)
a0801360:	8fc20020 	lw	v0,32(s8)
a0801364:	24430005 	addiu	v1,v0,5
a0801368:	8fc20010 	lw	v0,16(s8)
a080136c:	00021202 	srl	v0,v0,0x8
a0801370:	304200ff 	andi	v0,v0,0xff
a0801374:	a0620000 	sb	v0,0(v1)
a0801378:	03c0e821 	move	sp,s8
a080137c:	8fbf001c 	lw	ra,28(sp)
a0801380:	8fbe0018 	lw	s8,24(sp)
a0801384:	27bd0020 	addiu	sp,sp,32
a0801388:	03e00008 	jr	ra
a080138c:	00000000 	nop

a0801390 <print_dma_regs>:
a0801390:	27bdffe0 	addiu	sp,sp,-32
a0801394:	afbf001c 	sw	ra,28(sp)
a0801398:	afbe0018 	sw	s8,24(sp)
a080139c:	03a0f021 	move	s8,sp
a08013a0:	3c02a081 	lui	v0,0xa081
a08013a4:	244494f0 	addiu	a0,v0,-27408
a08013a8:	0c201959 	jal	a0806564 <printk>
a08013ac:	00000000 	nop
a08013b0:	3c02bfe1 	lui	v0,0xbfe1
a08013b4:	34441000 	ori	a0,v0,0x1000
a08013b8:	00002821 	move	a1,zero
a08013bc:	0c20048f 	jal	a080123c <read_register>
a08013c0:	00000000 	nop
a08013c4:	afc20014 	sw	v0,20(s8)
a08013c8:	3c02a081 	lui	v0,0xa081
a08013cc:	24449504 	addiu	a0,v0,-27388
a08013d0:	8fc50014 	lw	a1,20(s8)
a08013d4:	0c201959 	jal	a0806564 <printk>
a08013d8:	00000000 	nop
a08013dc:	3c02bfe1 	lui	v0,0xbfe1
a08013e0:	34441000 	ori	a0,v0,0x1000
a08013e4:	2405000c 	li	a1,12
a08013e8:	0c20048f 	jal	a080123c <read_register>
a08013ec:	00000000 	nop
a08013f0:	afc20014 	sw	v0,20(s8)
a08013f4:	3c02bfe1 	lui	v0,0xbfe1
a08013f8:	34441000 	ori	a0,v0,0x1000
a08013fc:	24050010 	li	a1,16
a0801400:	0c20048f 	jal	a080123c <read_register>
a0801404:	00000000 	nop
a0801408:	afc20010 	sw	v0,16(s8)
a080140c:	3c02a081 	lui	v0,0xa081
a0801410:	2444951c 	addiu	a0,v0,-27364
a0801414:	8fc50010 	lw	a1,16(s8)
a0801418:	8fc60014 	lw	a2,20(s8)
a080141c:	0c201959 	jal	a0806564 <printk>
a0801420:	00000000 	nop
a0801424:	3c02bfe1 	lui	v0,0xbfe1
a0801428:	34441000 	ori	a0,v0,0x1000
a080142c:	24050014 	li	a1,20
a0801430:	0c20048f 	jal	a080123c <read_register>
a0801434:	00000000 	nop
a0801438:	afc20014 	sw	v0,20(s8)
a080143c:	3c02a081 	lui	v0,0xa081
a0801440:	24449538 	addiu	a0,v0,-27336
a0801444:	8fc50014 	lw	a1,20(s8)
a0801448:	0c201959 	jal	a0806564 <printk>
a080144c:	00000000 	nop
a0801450:	3c02bfe1 	lui	v0,0xbfe1
a0801454:	34441000 	ori	a0,v0,0x1000
a0801458:	24050018 	li	a1,24
a080145c:	0c20048f 	jal	a080123c <read_register>
a0801460:	00000000 	nop
a0801464:	afc20014 	sw	v0,20(s8)
a0801468:	3c02a081 	lui	v0,0xa081
a080146c:	24449550 	addiu	a0,v0,-27312
a0801470:	8fc50014 	lw	a1,20(s8)
a0801474:	0c201959 	jal	a0806564 <printk>
a0801478:	00000000 	nop
a080147c:	3c02bfe1 	lui	v0,0xbfe1
a0801480:	34441000 	ori	a0,v0,0x1000
a0801484:	2405001c 	li	a1,28
a0801488:	0c20048f 	jal	a080123c <read_register>
a080148c:	00000000 	nop
a0801490:	afc20014 	sw	v0,20(s8)
a0801494:	3c02a081 	lui	v0,0xa081
a0801498:	24449568 	addiu	a0,v0,-27288
a080149c:	8fc50014 	lw	a1,20(s8)
a08014a0:	0c201959 	jal	a0806564 <printk>
a08014a4:	00000000 	nop
a08014a8:	3c02bfe1 	lui	v0,0xbfe1
a08014ac:	34441000 	ori	a0,v0,0x1000
a08014b0:	24050020 	li	a1,32
a08014b4:	0c20048f 	jal	a080123c <read_register>
a08014b8:	00000000 	nop
a08014bc:	afc20014 	sw	v0,20(s8)
a08014c0:	3c02a081 	lui	v0,0xa081
a08014c4:	24449584 	addiu	a0,v0,-27260
a08014c8:	8fc50014 	lw	a1,20(s8)
a08014cc:	0c201959 	jal	a0806564 <printk>
a08014d0:	00000000 	nop
a08014d4:	3c02bfe1 	lui	v0,0xbfe1
a08014d8:	34441000 	ori	a0,v0,0x1000
a08014dc:	24050048 	li	a1,72
a08014e0:	0c20048f 	jal	a080123c <read_register>
a08014e4:	00000000 	nop
a08014e8:	afc20014 	sw	v0,20(s8)
a08014ec:	3c02bfe1 	lui	v0,0xbfe1
a08014f0:	34441000 	ori	a0,v0,0x1000
a08014f4:	2405004c 	li	a1,76
a08014f8:	0c20048f 	jal	a080123c <read_register>
a08014fc:	00000000 	nop
a0801500:	afc20010 	sw	v0,16(s8)
a0801504:	3c02a081 	lui	v0,0xa081
a0801508:	2444959c 	addiu	a0,v0,-27236
a080150c:	8fc50014 	lw	a1,20(s8)
a0801510:	8fc60010 	lw	a2,16(s8)
a0801514:	0c201959 	jal	a0806564 <printk>
a0801518:	00000000 	nop
a080151c:	3c02bfe1 	lui	v0,0xbfe1
a0801520:	34441000 	ori	a0,v0,0x1000
a0801524:	24050050 	li	a1,80
a0801528:	0c20048f 	jal	a080123c <read_register>
a080152c:	00000000 	nop
a0801530:	afc20014 	sw	v0,20(s8)
a0801534:	3c02bfe1 	lui	v0,0xbfe1
a0801538:	34441000 	ori	a0,v0,0x1000
a080153c:	24050054 	li	a1,84
a0801540:	0c20048f 	jal	a080123c <read_register>
a0801544:	00000000 	nop
a0801548:	afc20010 	sw	v0,16(s8)
a080154c:	3c02a081 	lui	v0,0xa081
a0801550:	244495d4 	addiu	a0,v0,-27180
a0801554:	8fc50014 	lw	a1,20(s8)
a0801558:	8fc60010 	lw	a2,16(s8)
a080155c:	0c201959 	jal	a0806564 <printk>
a0801560:	00000000 	nop
a0801564:	03c0e821 	move	sp,s8
a0801568:	8fbf001c 	lw	ra,28(sp)
a080156c:	8fbe0018 	lw	s8,24(sp)
a0801570:	27bd0020 	addiu	sp,sp,32
a0801574:	03e00008 	jr	ra
a0801578:	00000000 	nop

a080157c <print_mac_regs>:
a080157c:	27bdffc8 	addiu	sp,sp,-56
a0801580:	afbf0034 	sw	ra,52(sp)
a0801584:	afbe0030 	sw	s8,48(sp)
a0801588:	03a0f021 	move	s8,sp
a080158c:	3c02a081 	lui	v0,0xa081
a0801590:	24449610 	addiu	a0,v0,-27120
a0801594:	0c201959 	jal	a0806564 <printk>
a0801598:	00000000 	nop
a080159c:	3c04bfe1 	lui	a0,0xbfe1
a08015a0:	00002821 	move	a1,zero
a08015a4:	0c20048f 	jal	a080123c <read_register>
a08015a8:	00000000 	nop
a08015ac:	afc20024 	sw	v0,36(s8)
a08015b0:	3c02a081 	lui	v0,0xa081
a08015b4:	24449624 	addiu	a0,v0,-27100
a08015b8:	8fc50024 	lw	a1,36(s8)
a08015bc:	0c201959 	jal	a0806564 <printk>
a08015c0:	00000000 	nop
a08015c4:	3c04bfe1 	lui	a0,0xbfe1
a08015c8:	24050004 	li	a1,4
a08015cc:	0c20048f 	jal	a080123c <read_register>
a08015d0:	00000000 	nop
a08015d4:	afc20024 	sw	v0,36(s8)
a08015d8:	3c02a081 	lui	v0,0xa081
a08015dc:	24449640 	addiu	a0,v0,-27072
a08015e0:	8fc50024 	lw	a1,36(s8)
a08015e4:	0c201959 	jal	a0806564 <printk>
a08015e8:	00000000 	nop
a08015ec:	3c04bfe1 	lui	a0,0xbfe1
a08015f0:	24050008 	li	a1,8
a08015f4:	0c20048f 	jal	a080123c <read_register>
a08015f8:	00000000 	nop
a08015fc:	afc20024 	sw	v0,36(s8)
a0801600:	3c04bfe1 	lui	a0,0xbfe1
a0801604:	2405000c 	li	a1,12
a0801608:	0c20048f 	jal	a080123c <read_register>
a080160c:	00000000 	nop
a0801610:	afc20020 	sw	v0,32(s8)
a0801614:	3c02a081 	lui	v0,0xa081
a0801618:	2444965c 	addiu	a0,v0,-27044
a080161c:	8fc50024 	lw	a1,36(s8)
a0801620:	8fc60020 	lw	a2,32(s8)
a0801624:	0c201959 	jal	a0806564 <printk>
a0801628:	00000000 	nop
a080162c:	3c04bfe1 	lui	a0,0xbfe1
a0801630:	24050018 	li	a1,24
a0801634:	0c20048f 	jal	a080123c <read_register>
a0801638:	00000000 	nop
a080163c:	afc20024 	sw	v0,36(s8)
a0801640:	3c02a081 	lui	v0,0xa081
a0801644:	24449688 	addiu	a0,v0,-27000
a0801648:	8fc50024 	lw	a1,36(s8)
a080164c:	0c201959 	jal	a0806564 <printk>
a0801650:	00000000 	nop
a0801654:	3c04bfe1 	lui	a0,0xbfe1
a0801658:	24050020 	li	a1,32
a080165c:	0c20048f 	jal	a080123c <read_register>
a0801660:	00000000 	nop
a0801664:	afc20024 	sw	v0,36(s8)
a0801668:	3c02a081 	lui	v0,0xa081
a080166c:	244496a4 	addiu	a0,v0,-26972
a0801670:	8fc50024 	lw	a1,36(s8)
a0801674:	0c201959 	jal	a0806564 <printk>
a0801678:	00000000 	nop
a080167c:	3c04bfe1 	lui	a0,0xbfe1
a0801680:	24050038 	li	a1,56
a0801684:	0c20048f 	jal	a080123c <read_register>
a0801688:	00000000 	nop
a080168c:	afc20024 	sw	v0,36(s8)
a0801690:	3c04bfe1 	lui	a0,0xbfe1
a0801694:	2405003c 	li	a1,60
a0801698:	0c20048f 	jal	a080123c <read_register>
a080169c:	00000000 	nop
a08016a0:	afc20020 	sw	v0,32(s8)
a08016a4:	3c02a081 	lui	v0,0xa081
a08016a8:	244496bc 	addiu	a0,v0,-26948
a08016ac:	8fc50024 	lw	a1,36(s8)
a08016b0:	8fc60020 	lw	a2,32(s8)
a08016b4:	0c201959 	jal	a0806564 <printk>
a08016b8:	00000000 	nop
a08016bc:	27c20028 	addiu	v0,s8,40
a08016c0:	00402021 	move	a0,v0
a08016c4:	0c2004ae 	jal	a08012b8 <gmac_get_mac_addr>
a08016c8:	00000000 	nop
a08016cc:	93c20028 	lbu	v0,40(s8)
a08016d0:	00402821 	move	a1,v0
a08016d4:	93c20029 	lbu	v0,41(s8)
a08016d8:	00403021 	move	a2,v0
a08016dc:	93c2002a 	lbu	v0,42(s8)
a08016e0:	00403821 	move	a3,v0
a08016e4:	93c2002b 	lbu	v0,43(s8)
a08016e8:	00401821 	move	v1,v0
a08016ec:	93c2002c 	lbu	v0,44(s8)
a08016f0:	00402021 	move	a0,v0
a08016f4:	93c2002d 	lbu	v0,45(s8)
a08016f8:	afa30010 	sw	v1,16(sp)
a08016fc:	afa40014 	sw	a0,20(sp)
a0801700:	afa20018 	sw	v0,24(sp)
a0801704:	3c02a081 	lui	v0,0xa081
a0801708:	244496ec 	addiu	a0,v0,-26900
a080170c:	0c201959 	jal	a0806564 <printk>
a0801710:	00000000 	nop
a0801714:	03c0e821 	move	sp,s8
a0801718:	8fbf0034 	lw	ra,52(sp)
a080171c:	8fbe0030 	lw	s8,48(sp)
a0801720:	27bd0038 	addiu	sp,sp,56
a0801724:	03e00008 	jr	ra
a0801728:	00000000 	nop

a080172c <printf_dma_regs>:
a080172c:	27bdffe0 	addiu	sp,sp,-32
a0801730:	afbf001c 	sw	ra,28(sp)
a0801734:	afbe0018 	sw	s8,24(sp)
a0801738:	03a0f021 	move	s8,sp
a080173c:	3c02a081 	lui	v0,0xa081
a0801740:	244494f0 	addiu	a0,v0,-27408
a0801744:	0c20197b 	jal	a08065ec <printf>
a0801748:	00000000 	nop
a080174c:	3c02bfe1 	lui	v0,0xbfe1
a0801750:	34441000 	ori	a0,v0,0x1000
a0801754:	00002821 	move	a1,zero
a0801758:	0c20048f 	jal	a080123c <read_register>
a080175c:	00000000 	nop
a0801760:	afc20014 	sw	v0,20(s8)
a0801764:	3c02a081 	lui	v0,0xa081
a0801768:	24449504 	addiu	a0,v0,-27388
a080176c:	8fc50014 	lw	a1,20(s8)
a0801770:	0c20197b 	jal	a08065ec <printf>
a0801774:	00000000 	nop
a0801778:	3c02bfe1 	lui	v0,0xbfe1
a080177c:	34441000 	ori	a0,v0,0x1000
a0801780:	2405000c 	li	a1,12
a0801784:	0c20048f 	jal	a080123c <read_register>
a0801788:	00000000 	nop
a080178c:	afc20014 	sw	v0,20(s8)
a0801790:	3c02bfe1 	lui	v0,0xbfe1
a0801794:	34441000 	ori	a0,v0,0x1000
a0801798:	24050010 	li	a1,16
a080179c:	0c20048f 	jal	a080123c <read_register>
a08017a0:	00000000 	nop
a08017a4:	afc20010 	sw	v0,16(s8)
a08017a8:	3c02a081 	lui	v0,0xa081
a08017ac:	24449714 	addiu	a0,v0,-26860
a08017b0:	8fc50014 	lw	a1,20(s8)
a08017b4:	8fc60010 	lw	a2,16(s8)
a08017b8:	0c20197b 	jal	a08065ec <printf>
a08017bc:	00000000 	nop
a08017c0:	3c02bfe1 	lui	v0,0xbfe1
a08017c4:	34441000 	ori	a0,v0,0x1000
a08017c8:	24050014 	li	a1,20
a08017cc:	0c20048f 	jal	a080123c <read_register>
a08017d0:	00000000 	nop
a08017d4:	afc20014 	sw	v0,20(s8)
a08017d8:	3c02a081 	lui	v0,0xa081
a08017dc:	24449538 	addiu	a0,v0,-27336
a08017e0:	8fc50014 	lw	a1,20(s8)
a08017e4:	0c20197b 	jal	a08065ec <printf>
a08017e8:	00000000 	nop
a08017ec:	3c02bfe1 	lui	v0,0xbfe1
a08017f0:	34441000 	ori	a0,v0,0x1000
a08017f4:	24050018 	li	a1,24
a08017f8:	0c20048f 	jal	a080123c <read_register>
a08017fc:	00000000 	nop
a0801800:	afc20014 	sw	v0,20(s8)
a0801804:	3c02a081 	lui	v0,0xa081
a0801808:	24449550 	addiu	a0,v0,-27312
a080180c:	8fc50014 	lw	a1,20(s8)
a0801810:	0c20197b 	jal	a08065ec <printf>
a0801814:	00000000 	nop
a0801818:	3c02bfe1 	lui	v0,0xbfe1
a080181c:	34441000 	ori	a0,v0,0x1000
a0801820:	2405001c 	li	a1,28
a0801824:	0c20048f 	jal	a080123c <read_register>
a0801828:	00000000 	nop
a080182c:	afc20014 	sw	v0,20(s8)
a0801830:	3c02a081 	lui	v0,0xa081
a0801834:	24449568 	addiu	a0,v0,-27288
a0801838:	8fc50014 	lw	a1,20(s8)
a080183c:	0c20197b 	jal	a08065ec <printf>
a0801840:	00000000 	nop
a0801844:	3c02bfe1 	lui	v0,0xbfe1
a0801848:	34441000 	ori	a0,v0,0x1000
a080184c:	24050020 	li	a1,32
a0801850:	0c20048f 	jal	a080123c <read_register>
a0801854:	00000000 	nop
a0801858:	afc20014 	sw	v0,20(s8)
a080185c:	3c02a081 	lui	v0,0xa081
a0801860:	24449584 	addiu	a0,v0,-27260
a0801864:	8fc50014 	lw	a1,20(s8)
a0801868:	0c20197b 	jal	a08065ec <printf>
a080186c:	00000000 	nop
a0801870:	3c02bfe1 	lui	v0,0xbfe1
a0801874:	34441000 	ori	a0,v0,0x1000
a0801878:	24050048 	li	a1,72
a080187c:	0c20048f 	jal	a080123c <read_register>
a0801880:	00000000 	nop
a0801884:	afc20014 	sw	v0,20(s8)
a0801888:	3c02bfe1 	lui	v0,0xbfe1
a080188c:	34441000 	ori	a0,v0,0x1000
a0801890:	2405004c 	li	a1,76
a0801894:	0c20048f 	jal	a080123c <read_register>
a0801898:	00000000 	nop
a080189c:	afc20010 	sw	v0,16(s8)
a08018a0:	3c02a081 	lui	v0,0xa081
a08018a4:	2444959c 	addiu	a0,v0,-27236
a08018a8:	8fc50014 	lw	a1,20(s8)
a08018ac:	8fc60010 	lw	a2,16(s8)
a08018b0:	0c20197b 	jal	a08065ec <printf>
a08018b4:	00000000 	nop
a08018b8:	3c02bfe1 	lui	v0,0xbfe1
a08018bc:	34441000 	ori	a0,v0,0x1000
a08018c0:	24050050 	li	a1,80
a08018c4:	0c20048f 	jal	a080123c <read_register>
a08018c8:	00000000 	nop
a08018cc:	afc20014 	sw	v0,20(s8)
a08018d0:	3c02bfe1 	lui	v0,0xbfe1
a08018d4:	34441000 	ori	a0,v0,0x1000
a08018d8:	24050054 	li	a1,84
a08018dc:	0c20048f 	jal	a080123c <read_register>
a08018e0:	00000000 	nop
a08018e4:	afc20010 	sw	v0,16(s8)
a08018e8:	3c02a081 	lui	v0,0xa081
a08018ec:	244495d4 	addiu	a0,v0,-27180
a08018f0:	8fc50014 	lw	a1,20(s8)
a08018f4:	8fc60010 	lw	a2,16(s8)
a08018f8:	0c201959 	jal	a0806564 <printk>
a08018fc:	00000000 	nop
a0801900:	03c0e821 	move	sp,s8
a0801904:	8fbf001c 	lw	ra,28(sp)
a0801908:	8fbe0018 	lw	s8,24(sp)
a080190c:	27bd0020 	addiu	sp,sp,32
a0801910:	03e00008 	jr	ra
a0801914:	00000000 	nop

a0801918 <printf_mac_regs>:
a0801918:	27bdffc8 	addiu	sp,sp,-56
a080191c:	afbf0034 	sw	ra,52(sp)
a0801920:	afbe0030 	sw	s8,48(sp)
a0801924:	03a0f021 	move	s8,sp
a0801928:	3c02a081 	lui	v0,0xa081
a080192c:	24449610 	addiu	a0,v0,-27120
a0801930:	0c20197b 	jal	a08065ec <printf>
a0801934:	00000000 	nop
a0801938:	3c04bfe1 	lui	a0,0xbfe1
a080193c:	00002821 	move	a1,zero
a0801940:	0c20048f 	jal	a080123c <read_register>
a0801944:	00000000 	nop
a0801948:	afc20024 	sw	v0,36(s8)
a080194c:	3c02a081 	lui	v0,0xa081
a0801950:	24449624 	addiu	a0,v0,-27100
a0801954:	8fc50024 	lw	a1,36(s8)
a0801958:	0c20197b 	jal	a08065ec <printf>
a080195c:	00000000 	nop
a0801960:	3c04bfe1 	lui	a0,0xbfe1
a0801964:	24050004 	li	a1,4
a0801968:	0c20048f 	jal	a080123c <read_register>
a080196c:	00000000 	nop
a0801970:	afc20024 	sw	v0,36(s8)
a0801974:	3c02a081 	lui	v0,0xa081
a0801978:	24449640 	addiu	a0,v0,-27072
a080197c:	8fc50024 	lw	a1,36(s8)
a0801980:	0c20197b 	jal	a08065ec <printf>
a0801984:	00000000 	nop
a0801988:	3c04bfe1 	lui	a0,0xbfe1
a080198c:	24050008 	li	a1,8
a0801990:	0c20048f 	jal	a080123c <read_register>
a0801994:	00000000 	nop
a0801998:	afc20024 	sw	v0,36(s8)
a080199c:	3c04bfe1 	lui	a0,0xbfe1
a08019a0:	2405000c 	li	a1,12
a08019a4:	0c20048f 	jal	a080123c <read_register>
a08019a8:	00000000 	nop
a08019ac:	afc20020 	sw	v0,32(s8)
a08019b0:	3c02a081 	lui	v0,0xa081
a08019b4:	2444965c 	addiu	a0,v0,-27044
a08019b8:	8fc50024 	lw	a1,36(s8)
a08019bc:	8fc60020 	lw	a2,32(s8)
a08019c0:	0c20197b 	jal	a08065ec <printf>
a08019c4:	00000000 	nop
a08019c8:	3c04bfe1 	lui	a0,0xbfe1
a08019cc:	24050018 	li	a1,24
a08019d0:	0c20048f 	jal	a080123c <read_register>
a08019d4:	00000000 	nop
a08019d8:	afc20024 	sw	v0,36(s8)
a08019dc:	3c02a081 	lui	v0,0xa081
a08019e0:	24449688 	addiu	a0,v0,-27000
a08019e4:	8fc50024 	lw	a1,36(s8)
a08019e8:	0c20197b 	jal	a08065ec <printf>
a08019ec:	00000000 	nop
a08019f0:	3c04bfe1 	lui	a0,0xbfe1
a08019f4:	24050020 	li	a1,32
a08019f8:	0c20048f 	jal	a080123c <read_register>
a08019fc:	00000000 	nop
a0801a00:	afc20024 	sw	v0,36(s8)
a0801a04:	3c02a081 	lui	v0,0xa081
a0801a08:	244496a4 	addiu	a0,v0,-26972
a0801a0c:	8fc50024 	lw	a1,36(s8)
a0801a10:	0c20197b 	jal	a08065ec <printf>
a0801a14:	00000000 	nop
a0801a18:	3c04bfe1 	lui	a0,0xbfe1
a0801a1c:	24050038 	li	a1,56
a0801a20:	0c20048f 	jal	a080123c <read_register>
a0801a24:	00000000 	nop
a0801a28:	afc20024 	sw	v0,36(s8)
a0801a2c:	3c04bfe1 	lui	a0,0xbfe1
a0801a30:	2405003c 	li	a1,60
a0801a34:	0c20048f 	jal	a080123c <read_register>
a0801a38:	00000000 	nop
a0801a3c:	afc20020 	sw	v0,32(s8)
a0801a40:	3c02a081 	lui	v0,0xa081
a0801a44:	244496bc 	addiu	a0,v0,-26948
a0801a48:	8fc50024 	lw	a1,36(s8)
a0801a4c:	8fc60020 	lw	a2,32(s8)
a0801a50:	0c20197b 	jal	a08065ec <printf>
a0801a54:	00000000 	nop
a0801a58:	27c20028 	addiu	v0,s8,40
a0801a5c:	00402021 	move	a0,v0
a0801a60:	0c2004ae 	jal	a08012b8 <gmac_get_mac_addr>
a0801a64:	00000000 	nop
a0801a68:	93c20028 	lbu	v0,40(s8)
a0801a6c:	00402821 	move	a1,v0
a0801a70:	93c20029 	lbu	v0,41(s8)
a0801a74:	00403021 	move	a2,v0
a0801a78:	93c2002a 	lbu	v0,42(s8)
a0801a7c:	00403821 	move	a3,v0
a0801a80:	93c2002b 	lbu	v0,43(s8)
a0801a84:	00401821 	move	v1,v0
a0801a88:	93c2002c 	lbu	v0,44(s8)
a0801a8c:	00402021 	move	a0,v0
a0801a90:	93c2002d 	lbu	v0,45(s8)
a0801a94:	afa30010 	sw	v1,16(sp)
a0801a98:	afa40014 	sw	a0,20(sp)
a0801a9c:	afa20018 	sw	v0,24(sp)
a0801aa0:	3c02a081 	lui	v0,0xa081
a0801aa4:	244496ec 	addiu	a0,v0,-26900
a0801aa8:	0c20197b 	jal	a08065ec <printf>
a0801aac:	00000000 	nop
a0801ab0:	03c0e821 	move	sp,s8
a0801ab4:	8fbf0034 	lw	ra,52(sp)
a0801ab8:	8fbe0030 	lw	s8,48(sp)
a0801abc:	27bd0038 	addiu	sp,sp,56
a0801ac0:	03e00008 	jr	ra
a0801ac4:	00000000 	nop

a0801ac8 <print_tx_dscrb>:
a0801ac8:	27bdffe0 	addiu	sp,sp,-32
a0801acc:	afbf001c 	sw	ra,28(sp)
a0801ad0:	afbe0018 	sw	s8,24(sp)
a0801ad4:	03a0f021 	move	s8,sp
a0801ad8:	afc40020 	sw	a0,32(s8)
a0801adc:	8fc20020 	lw	v0,32(s8)
a0801ae0:	8c430010 	lw	v1,16(v0)
a0801ae4:	3c02a081 	lui	v0,0xa081
a0801ae8:	24449730 	addiu	a0,v0,-26832
a0801aec:	00602821 	move	a1,v1
a0801af0:	0c20197b 	jal	a08065ec <printf>
a0801af4:	00000000 	nop
a0801af8:	8fc20020 	lw	v0,32(s8)
a0801afc:	8c430018 	lw	v1,24(v0)
a0801b00:	3c02a081 	lui	v0,0xa081
a0801b04:	24449750 	addiu	a0,v0,-26800
a0801b08:	00602821 	move	a1,v1
a0801b0c:	0c20197b 	jal	a08065ec <printf>
a0801b10:	00000000 	nop
a0801b14:	8fc20020 	lw	v0,32(s8)
a0801b18:	8c430028 	lw	v1,40(v0)
a0801b1c:	3c02a081 	lui	v0,0xa081
a0801b20:	24449768 	addiu	a0,v0,-26776
a0801b24:	00602821 	move	a1,v1
a0801b28:	0c20197b 	jal	a08065ec <printf>
a0801b2c:	00000000 	nop
a0801b30:	03c0e821 	move	sp,s8
a0801b34:	8fbf001c 	lw	ra,28(sp)
a0801b38:	8fbe0018 	lw	s8,24(sp)
a0801b3c:	27bd0020 	addiu	sp,sp,32
a0801b40:	03e00008 	jr	ra
a0801b44:	00000000 	nop

a0801b48 <print_rx_dscrb>:
a0801b48:	27bdffe0 	addiu	sp,sp,-32
a0801b4c:	afbf001c 	sw	ra,28(sp)
a0801b50:	afbe0018 	sw	s8,24(sp)
a0801b54:	03a0f021 	move	s8,sp
a0801b58:	afc40020 	sw	a0,32(s8)
a0801b5c:	8fc20020 	lw	v0,32(s8)
a0801b60:	8c430014 	lw	v1,20(v0)
a0801b64:	3c02a081 	lui	v0,0xa081
a0801b68:	24449788 	addiu	a0,v0,-26744
a0801b6c:	00602821 	move	a1,v1
a0801b70:	0c20197b 	jal	a08065ec <printf>
a0801b74:	00000000 	nop
a0801b78:	8fc20020 	lw	v0,32(s8)
a0801b7c:	8c43001c 	lw	v1,28(v0)
a0801b80:	3c02a081 	lui	v0,0xa081
a0801b84:	244497ac 	addiu	a0,v0,-26708
a0801b88:	00602821 	move	a1,v1
a0801b8c:	0c20197b 	jal	a08065ec <printf>
a0801b90:	00000000 	nop
a0801b94:	8fc20020 	lw	v0,32(s8)
a0801b98:	8c43002c 	lw	v1,44(v0)
a0801b9c:	3c02a081 	lui	v0,0xa081
a0801ba0:	244497c4 	addiu	a0,v0,-26684
a0801ba4:	00602821 	move	a1,v1
a0801ba8:	0c20197b 	jal	a08065ec <printf>
a0801bac:	00000000 	nop
a0801bb0:	8fc20020 	lw	v0,32(s8)
a0801bb4:	8c420024 	lw	v0,36(v0)
a0801bb8:	afc20010 	sw	v0,16(s8)
a0801bbc:	03c0e821 	move	sp,s8
a0801bc0:	8fbf001c 	lw	ra,28(sp)
a0801bc4:	8fbe0018 	lw	s8,24(sp)
a0801bc8:	27bd0020 	addiu	sp,sp,32
a0801bcc:	03e00008 	jr	ra
a0801bd0:	00000000 	nop

a0801bd4 <irq_mac>:
a0801bd4:	27bdfff8 	addiu	sp,sp,-8
a0801bd8:	afbe0004 	sw	s8,4(sp)
a0801bdc:	03a0f021 	move	s8,sp
a0801be0:	03c0e821 	move	sp,s8
a0801be4:	8fbe0004 	lw	s8,4(sp)
a0801be8:	27bd0008 	addiu	sp,sp,8
a0801bec:	03e00008 	jr	ra
a0801bf0:	00000000 	nop

a0801bf4 <irq_enable>:
a0801bf4:	27bdfff8 	addiu	sp,sp,-8
a0801bf8:	afbe0004 	sw	s8,4(sp)
a0801bfc:	03a0f021 	move	s8,sp
a0801c00:	afc40008 	sw	a0,8(s8)
a0801c04:	03c0e821 	move	sp,s8
a0801c08:	8fbe0004 	lw	s8,4(sp)
a0801c0c:	27bd0008 	addiu	sp,sp,8
a0801c10:	03e00008 	jr	ra
a0801c14:	00000000 	nop

a0801c18 <check_recv>:
a0801c18:	27bdfff8 	addiu	sp,sp,-8
a0801c1c:	afbe0004 	sw	s8,4(sp)
a0801c20:	03a0f021 	move	s8,sp
a0801c24:	afc40008 	sw	a0,8(s8)
a0801c28:	03c0e821 	move	sp,s8
a0801c2c:	8fbe0004 	lw	s8,4(sp)
a0801c30:	27bd0008 	addiu	sp,sp,8
a0801c34:	03e00008 	jr	ra
a0801c38:	00000000 	nop

a0801c3c <set_sram_ctr>:
a0801c3c:	27bdfff8 	addiu	sp,sp,-8
a0801c40:	afbe0004 	sw	s8,4(sp)
a0801c44:	03a0f021 	move	s8,sp
a0801c48:	3c02bfd0 	lui	v0,0xbfd0
a0801c4c:	34430420 	ori	v1,v0,0x420
a0801c50:	34028000 	li	v0,0x8000
a0801c54:	ac620000 	sw	v0,0(v1)
a0801c58:	03c0e821 	move	sp,s8
a0801c5c:	8fbe0004 	lw	s8,4(sp)
a0801c60:	27bd0008 	addiu	sp,sp,8
a0801c64:	03e00008 	jr	ra
a0801c68:	00000000 	nop

a0801c6c <s_reset>:
a0801c6c:	27bdffe0 	addiu	sp,sp,-32
a0801c70:	afbf001c 	sw	ra,28(sp)
a0801c74:	afbe0018 	sw	s8,24(sp)
a0801c78:	03a0f021 	move	s8,sp
a0801c7c:	afc40020 	sw	a0,32(s8)
a0801c80:	3c02000f 	lui	v0,0xf
a0801c84:	34424240 	ori	v0,v0,0x4240
a0801c88:	afc20010 	sw	v0,16(s8)
a0801c8c:	8fc20020 	lw	v0,32(s8)
a0801c90:	8c42000c 	lw	v0,12(v0)
a0801c94:	00402021 	move	a0,v0
a0801c98:	24050001 	li	a1,1
a0801c9c:	0c2004a1 	jal	a0801284 <reg_write_32>
a0801ca0:	00000000 	nop
a0801ca4:	08200739 	j	a0801ce4 <s_reset+0x78>
a0801ca8:	00000000 	nop
a0801cac:	8fc20020 	lw	v0,32(s8)
a0801cb0:	8c42000c 	lw	v0,12(v0)
a0801cb4:	00402021 	move	a0,v0
a0801cb8:	24050001 	li	a1,1
a0801cbc:	0c2004a1 	jal	a0801284 <reg_write_32>
a0801cc0:	00000000 	nop
a0801cc4:	08200736 	j	a0801cd8 <s_reset+0x6c>
a0801cc8:	00000000 	nop
a0801ccc:	8fc20010 	lw	v0,16(s8)
a0801cd0:	2442ffff 	addiu	v0,v0,-1
a0801cd4:	afc20010 	sw	v0,16(s8)
a0801cd8:	8fc20010 	lw	v0,16(s8)
a0801cdc:	1440fffb 	bnez	v0,a0801ccc <s_reset+0x60>
a0801ce0:	00000000 	nop
a0801ce4:	8fc20020 	lw	v0,32(s8)
a0801ce8:	8c42000c 	lw	v0,12(v0)
a0801cec:	00402021 	move	a0,v0
a0801cf0:	0c200484 	jal	a0801210 <reg_read_32>
a0801cf4:	00000000 	nop
a0801cf8:	30420001 	andi	v0,v0,0x1
a0801cfc:	304200ff 	andi	v0,v0,0xff
a0801d00:	1440ffea 	bnez	v0,a0801cac <s_reset+0x40>
a0801d04:	00000000 	nop
a0801d08:	03c0e821 	move	sp,s8
a0801d0c:	8fbf001c 	lw	ra,28(sp)
a0801d10:	8fbe0018 	lw	s8,24(sp)
a0801d14:	27bd0020 	addiu	sp,sp,32
a0801d18:	03e00008 	jr	ra
a0801d1c:	00000000 	nop

a0801d20 <disable_interrupt_all>:
a0801d20:	27bdffe8 	addiu	sp,sp,-24
a0801d24:	afbf0014 	sw	ra,20(sp)
a0801d28:	afbe0010 	sw	s8,16(sp)
a0801d2c:	03a0f021 	move	s8,sp
a0801d30:	afc40018 	sw	a0,24(s8)
a0801d34:	8fc20018 	lw	v0,24(s8)
a0801d38:	8c42000c 	lw	v0,12(v0)
a0801d3c:	2442001c 	addiu	v0,v0,28
a0801d40:	00402021 	move	a0,v0
a0801d44:	00002821 	move	a1,zero
a0801d48:	0c2004a1 	jal	a0801284 <reg_write_32>
a0801d4c:	00000000 	nop
a0801d50:	03c0e821 	move	sp,s8
a0801d54:	8fbf0014 	lw	ra,20(sp)
a0801d58:	8fbe0010 	lw	s8,16(sp)
a0801d5c:	27bd0018 	addiu	sp,sp,24
a0801d60:	03e00008 	jr	ra
a0801d64:	00000000 	nop

a0801d68 <set_mac_addr>:
a0801d68:	27bdffd0 	addiu	sp,sp,-48
a0801d6c:	afbf002c 	sw	ra,44(sp)
a0801d70:	afbe0028 	sw	s8,40(sp)
a0801d74:	03a0f021 	move	s8,sp
a0801d78:	afc40030 	sw	a0,48(s8)
a0801d7c:	3c03a081 	lui	v1,0xa081
a0801d80:	8c6297ec 	lw	v0,-26644(v1)
a0801d84:	afc2001c 	sw	v0,28(s8)
a0801d88:	246297ec 	addiu	v0,v1,-26644
a0801d8c:	94420004 	lhu	v0,4(v0)
a0801d90:	a7c20020 	sh	v0,32(s8)
a0801d94:	24020040 	li	v0,64
a0801d98:	afc20014 	sw	v0,20(s8)
a0801d9c:	24020044 	li	v0,68
a0801da0:	afc20010 	sw	v0,16(s8)
a0801da4:	93c20021 	lbu	v0,33(s8)
a0801da8:	00021a00 	sll	v1,v0,0x8
a0801dac:	93c20020 	lbu	v0,32(s8)
a0801db0:	00621025 	or	v0,v1,v0
a0801db4:	afc20018 	sw	v0,24(s8)
a0801db8:	8fc20030 	lw	v0,48(s8)
a0801dbc:	8c430008 	lw	v1,8(v0)
a0801dc0:	8fc20014 	lw	v0,20(s8)
a0801dc4:	00621021 	addu	v0,v1,v0
a0801dc8:	00402021 	move	a0,v0
a0801dcc:	8fc50018 	lw	a1,24(s8)
a0801dd0:	0c2004a1 	jal	a0801284 <reg_write_32>
a0801dd4:	00000000 	nop
a0801dd8:	93c2001f 	lbu	v0,31(s8)
a0801ddc:	00021e00 	sll	v1,v0,0x18
a0801de0:	93c2001e 	lbu	v0,30(s8)
a0801de4:	00021400 	sll	v0,v0,0x10
a0801de8:	00621825 	or	v1,v1,v0
a0801dec:	93c2001d 	lbu	v0,29(s8)
a0801df0:	00021200 	sll	v0,v0,0x8
a0801df4:	00621825 	or	v1,v1,v0
a0801df8:	93c2001c 	lbu	v0,28(s8)
a0801dfc:	00621025 	or	v0,v1,v0
a0801e00:	afc20018 	sw	v0,24(s8)
a0801e04:	8fc20030 	lw	v0,48(s8)
a0801e08:	8c430008 	lw	v1,8(v0)
a0801e0c:	8fc20010 	lw	v0,16(s8)
a0801e10:	00621021 	addu	v0,v1,v0
a0801e14:	00402021 	move	a0,v0
a0801e18:	8fc50018 	lw	a1,24(s8)
a0801e1c:	0c2004a1 	jal	a0801284 <reg_write_32>
a0801e20:	00000000 	nop
a0801e24:	03c0e821 	move	sp,s8
a0801e28:	8fbf002c 	lw	ra,44(sp)
a0801e2c:	8fbe0028 	lw	s8,40(sp)
a0801e30:	27bd0030 	addiu	sp,sp,48
a0801e34:	03e00008 	jr	ra
a0801e38:	00000000 	nop

a0801e3c <do_net_recv>:
a0801e3c:	27bdffd0 	addiu	sp,sp,-48
a0801e40:	afbf002c 	sw	ra,44(sp)
a0801e44:	afbe0028 	sw	s8,40(sp)
a0801e48:	03a0f021 	move	s8,sp
a0801e4c:	afc40030 	sw	a0,48(s8)
a0801e50:	afc50034 	sw	a1,52(s8)
a0801e54:	afc60038 	sw	a2,56(s8)
a0801e58:	afc00018 	sw	zero,24(s8)
a0801e5c:	8fc20038 	lw	v0,56(s8)
a0801e60:	afc20014 	sw	v0,20(s8)
a0801e64:	8fc20030 	lw	v0,48(s8)
a0801e68:	afc20010 	sw	v0,16(s8)
a0801e6c:	3c02bfe1 	lui	v0,0xbfe1
a0801e70:	3444100c 	ori	a0,v0,0x100c
a0801e74:	8fc50034 	lw	a1,52(s8)
a0801e78:	0c2004a1 	jal	a0801284 <reg_write_32>
a0801e7c:	00000000 	nop
a0801e80:	3c04bfe1 	lui	a0,0xbfe1
a0801e84:	0c200484 	jal	a0801210 <reg_read_32>
a0801e88:	00000000 	nop
a0801e8c:	34420004 	ori	v0,v0,0x4
a0801e90:	3c04bfe1 	lui	a0,0xbfe1
a0801e94:	00402821 	move	a1,v0
a0801e98:	0c2004a1 	jal	a0801284 <reg_write_32>
a0801e9c:	00000000 	nop
a0801ea0:	3c02bfe1 	lui	v0,0xbfe1
a0801ea4:	34441018 	ori	a0,v0,0x1018
a0801ea8:	0c200484 	jal	a0801210 <reg_read_32>
a0801eac:	00000000 	nop
a0801eb0:	00401821 	move	v1,v0
a0801eb4:	3c020220 	lui	v0,0x220
a0801eb8:	34420002 	ori	v0,v0,0x2
a0801ebc:	00621825 	or	v1,v1,v0
a0801ec0:	3c02bfe1 	lui	v0,0xbfe1
a0801ec4:	34441018 	ori	a0,v0,0x1018
a0801ec8:	00602821 	move	a1,v1
a0801ecc:	0c2004a1 	jal	a0801284 <reg_write_32>
a0801ed0:	00000000 	nop
a0801ed4:	3c02bfe1 	lui	v0,0xbfe1
a0801ed8:	3444101c 	ori	a0,v0,0x101c
a0801edc:	3c020001 	lui	v0,0x1
a0801ee0:	34450041 	ori	a1,v0,0x41
a0801ee4:	0c2004a1 	jal	a0801284 <reg_write_32>
a0801ee8:	00000000 	nop
a0801eec:	afc00020 	sw	zero,32(s8)
a0801ef0:	082007c7 	j	a0801f1c <do_net_recv+0xe0>
a0801ef4:	00000000 	nop
a0801ef8:	8fc20020 	lw	v0,32(s8)
a0801efc:	00021900 	sll	v1,v0,0x4
a0801f00:	8fc20010 	lw	v0,16(s8)
a0801f04:	00431821 	addu	v1,v0,v1
a0801f08:	3c028000 	lui	v0,0x8000
a0801f0c:	ac620000 	sw	v0,0(v1)
a0801f10:	8fc20020 	lw	v0,32(s8)
a0801f14:	24420001 	addiu	v0,v0,1
a0801f18:	afc20020 	sw	v0,32(s8)
a0801f1c:	8fc20020 	lw	v0,32(s8)
a0801f20:	28420040 	slti	v0,v0,64
a0801f24:	1440fff4 	bnez	v0,a0801ef8 <do_net_recv+0xbc>
a0801f28:	00000000 	nop
a0801f2c:	afc00020 	sw	zero,32(s8)
a0801f30:	082007d6 	j	a0801f58 <do_net_recv+0x11c>
a0801f34:	00000000 	nop
a0801f38:	3c02bfe1 	lui	v0,0xbfe1
a0801f3c:	34441008 	ori	a0,v0,0x1008
a0801f40:	24050001 	li	a1,1
a0801f44:	0c2004a1 	jal	a0801284 <reg_write_32>
a0801f48:	00000000 	nop
a0801f4c:	8fc20020 	lw	v0,32(s8)
a0801f50:	24420001 	addiu	v0,v0,1
a0801f54:	afc20020 	sw	v0,32(s8)
a0801f58:	8fc20020 	lw	v0,32(s8)
a0801f5c:	28420040 	slti	v0,v0,64
a0801f60:	1440fff5 	bnez	v0,a0801f38 <do_net_recv+0xfc>
a0801f64:	00000000 	nop
a0801f68:	082007e4 	j	a0801f90 <do_net_recv+0x154>
a0801f6c:	00000000 	nop
a0801f70:	24040001 	li	a0,1
a0801f74:	2405000b 	li	a1,11
a0801f78:	0c20028c 	jal	a0800a30 <vt100_move_cursor>
a0801f7c:	00000000 	nop
a0801f80:	3c02a081 	lui	v0,0xa081
a0801f84:	244497f4 	addiu	a0,v0,-26636
a0801f88:	0c201959 	jal	a0806564 <printk>
a0801f8c:	00000000 	nop
a0801f90:	8fc20010 	lw	v0,16(s8)
a0801f94:	8c420000 	lw	v0,0(v0)
a0801f98:	0440fff5 	bltz	v0,a0801f70 <do_net_recv+0x134>
a0801f9c:	00000000 	nop
a0801fa0:	afc00020 	sw	zero,32(s8)
a0801fa4:	08200822 	j	a0802088 <do_net_recv+0x24c>
a0801fa8:	00000000 	nop
a0801fac:	8fc20020 	lw	v0,32(s8)
a0801fb0:	00021900 	sll	v1,v0,0x4
a0801fb4:	8fc20010 	lw	v0,16(s8)
a0801fb8:	00431021 	addu	v0,v0,v1
a0801fbc:	8c420000 	lw	v0,0(v0)
a0801fc0:	0440002e 	bltz	v0,a080207c <do_net_recv+0x240>
a0801fc4:	00000000 	nop
a0801fc8:	24040001 	li	a0,1
a0801fcc:	24050003 	li	a1,3
a0801fd0:	0c20028c 	jal	a0800a30 <vt100_move_cursor>
a0801fd4:	00000000 	nop
a0801fd8:	8fc20020 	lw	v0,32(s8)
a0801fdc:	00021900 	sll	v1,v0,0x4
a0801fe0:	8fc20010 	lw	v0,16(s8)
a0801fe4:	00431021 	addu	v0,v0,v1
a0801fe8:	8c430000 	lw	v1,0(v0)
a0801fec:	3c02a081 	lui	v0,0xa081
a0801ff0:	24449810 	addiu	a0,v0,-26608
a0801ff4:	8fc50018 	lw	a1,24(s8)
a0801ff8:	00603021 	move	a2,v1
a0801ffc:	0c201959 	jal	a0806564 <printk>
a0802000:	00000000 	nop
a0802004:	afc0001c 	sw	zero,28(s8)
a0802008:	08200814 	j	a0802050 <do_net_recv+0x214>
a080200c:	00000000 	nop
a0802010:	8fc20018 	lw	v0,24(s8)
a0802014:	00021a00 	sll	v1,v0,0x8
a0802018:	8fc2001c 	lw	v0,28(s8)
a080201c:	00621021 	addu	v0,v1,v0
a0802020:	00021880 	sll	v1,v0,0x2
a0802024:	8fc20014 	lw	v0,20(s8)
a0802028:	00431021 	addu	v0,v0,v1
a080202c:	8c430000 	lw	v1,0(v0)
a0802030:	3c02a081 	lui	v0,0xa081
a0802034:	24449830 	addiu	a0,v0,-26576
a0802038:	00602821 	move	a1,v1
a080203c:	0c201959 	jal	a0806564 <printk>
a0802040:	00000000 	nop
a0802044:	8fc2001c 	lw	v0,28(s8)
a0802048:	24420001 	addiu	v0,v0,1
a080204c:	afc2001c 	sw	v0,28(s8)
a0802050:	8fc2001c 	lw	v0,28(s8)
a0802054:	28420100 	slti	v0,v0,256
a0802058:	1440ffed 	bnez	v0,a0802010 <do_net_recv+0x1d4>
a080205c:	00000000 	nop
a0802060:	3c02a081 	lui	v0,0xa081
a0802064:	24449834 	addiu	a0,v0,-26572
a0802068:	0c201959 	jal	a0806564 <printk>
a080206c:	00000000 	nop
a0802070:	8fc20018 	lw	v0,24(s8)
a0802074:	24420001 	addiu	v0,v0,1
a0802078:	afc20018 	sw	v0,24(s8)
a080207c:	8fc20020 	lw	v0,32(s8)
a0802080:	24420001 	addiu	v0,v0,1
a0802084:	afc20020 	sw	v0,32(s8)
a0802088:	8fc20020 	lw	v0,32(s8)
a080208c:	28420040 	slti	v0,v0,64
a0802090:	1440ffc6 	bnez	v0,a0801fac <do_net_recv+0x170>
a0802094:	00000000 	nop
a0802098:	3c02a081 	lui	v0,0xa081
a080209c:	24449838 	addiu	a0,v0,-26568
a08020a0:	8fc50018 	lw	a1,24(s8)
a08020a4:	0c201959 	jal	a0806564 <printk>
a08020a8:	00000000 	nop
a08020ac:	8fc20018 	lw	v0,24(s8)
a08020b0:	2c420001 	sltiu	v0,v0,1
a08020b4:	03c0e821 	move	sp,s8
a08020b8:	8fbf002c 	lw	ra,44(sp)
a08020bc:	8fbe0028 	lw	s8,40(sp)
a08020c0:	27bd0030 	addiu	sp,sp,48
a08020c4:	03e00008 	jr	ra
a08020c8:	00000000 	nop

a08020cc <do_net_send>:
a08020cc:	27bdffe0 	addiu	sp,sp,-32
a08020d0:	afbf001c 	sw	ra,28(sp)
a08020d4:	afbe0018 	sw	s8,24(sp)
a08020d8:	03a0f021 	move	s8,sp
a08020dc:	afc40020 	sw	a0,32(s8)
a08020e0:	afc50024 	sw	a1,36(s8)
a08020e4:	8fc20020 	lw	v0,32(s8)
a08020e8:	afc20010 	sw	v0,16(s8)
a08020ec:	3c02bfe1 	lui	v0,0xbfe1
a08020f0:	34441010 	ori	a0,v0,0x1010
a08020f4:	8fc50024 	lw	a1,36(s8)
a08020f8:	0c2004a1 	jal	a0801284 <reg_write_32>
a08020fc:	00000000 	nop
a0802100:	3c04bfe1 	lui	a0,0xbfe1
a0802104:	0c200484 	jal	a0801210 <reg_read_32>
a0802108:	00000000 	nop
a080210c:	34420008 	ori	v0,v0,0x8
a0802110:	3c04bfe1 	lui	a0,0xbfe1
a0802114:	00402821 	move	a1,v0
a0802118:	0c2004a1 	jal	a0801284 <reg_write_32>
a080211c:	00000000 	nop
a0802120:	3c02bfe1 	lui	v0,0xbfe1
a0802124:	34441018 	ori	a0,v0,0x1018
a0802128:	0c200484 	jal	a0801210 <reg_read_32>
a080212c:	00000000 	nop
a0802130:	00401821 	move	v1,v0
a0802134:	3c020220 	lui	v0,0x220
a0802138:	34422000 	ori	v0,v0,0x2000
a080213c:	00621825 	or	v1,v1,v0
a0802140:	3c02bfe1 	lui	v0,0xbfe1
a0802144:	34441018 	ori	a0,v0,0x1018
a0802148:	00602821 	move	a1,v1
a080214c:	0c2004a1 	jal	a0801284 <reg_write_32>
a0802150:	00000000 	nop
a0802154:	3c02bfe1 	lui	v0,0xbfe1
a0802158:	3444101c 	ori	a0,v0,0x101c
a080215c:	3c020001 	lui	v0,0x1
a0802160:	34450041 	ori	a1,v0,0x41
a0802164:	0c2004a1 	jal	a0801284 <reg_write_32>
a0802168:	00000000 	nop
a080216c:	afc00014 	sw	zero,20(s8)
a0802170:	08200867 	j	a080219c <do_net_send+0xd0>
a0802174:	00000000 	nop
a0802178:	8fc20014 	lw	v0,20(s8)
a080217c:	00021900 	sll	v1,v0,0x4
a0802180:	8fc20010 	lw	v0,16(s8)
a0802184:	00431821 	addu	v1,v0,v1
a0802188:	3c028000 	lui	v0,0x8000
a080218c:	ac620000 	sw	v0,0(v1)
a0802190:	8fc20014 	lw	v0,20(s8)
a0802194:	24420001 	addiu	v0,v0,1
a0802198:	afc20014 	sw	v0,20(s8)
a080219c:	8fc20014 	lw	v0,20(s8)
a08021a0:	28420040 	slti	v0,v0,64
a08021a4:	1440fff4 	bnez	v0,a0802178 <do_net_send+0xac>
a08021a8:	00000000 	nop
a08021ac:	afc00014 	sw	zero,20(s8)
a08021b0:	08200876 	j	a08021d8 <do_net_send+0x10c>
a08021b4:	00000000 	nop
a08021b8:	3c02bfe1 	lui	v0,0xbfe1
a08021bc:	34441004 	ori	a0,v0,0x1004
a08021c0:	24050001 	li	a1,1
a08021c4:	0c2004a1 	jal	a0801284 <reg_write_32>
a08021c8:	00000000 	nop
a08021cc:	8fc20014 	lw	v0,20(s8)
a08021d0:	24420001 	addiu	v0,v0,1
a08021d4:	afc20014 	sw	v0,20(s8)
a08021d8:	8fc20014 	lw	v0,20(s8)
a08021dc:	28420040 	slti	v0,v0,64
a08021e0:	1440fff5 	bnez	v0,a08021b8 <do_net_send+0xec>
a08021e4:	00000000 	nop
a08021e8:	03c0e821 	move	sp,s8
a08021ec:	8fbf001c 	lw	ra,28(sp)
a08021f0:	8fbe0018 	lw	s8,24(sp)
a08021f4:	27bd0020 	addiu	sp,sp,32
a08021f8:	03e00008 	jr	ra
a08021fc:	00000000 	nop

a0802200 <do_init_mac>:
a0802200:	27bdffb0 	addiu	sp,sp,-80
a0802204:	afbf004c 	sw	ra,76(sp)
a0802208:	afbe0048 	sw	s8,72(sp)
a080220c:	03a0f021 	move	s8,sp
a0802210:	3c02bfe1 	lui	v0,0xbfe1
a0802214:	afc2001c 	sw	v0,28(s8)
a0802218:	3c02bfe1 	lui	v0,0xbfe1
a080221c:	34421000 	ori	v0,v0,0x1000
a0802220:	afc20020 	sw	v0,32(s8)
a0802224:	24020400 	li	v0,1024
a0802228:	afc20014 	sw	v0,20(s8)
a080222c:	24020040 	li	v0,64
a0802230:	afc20018 	sw	v0,24(s8)
a0802234:	0c20070f 	jal	a0801c3c <set_sram_ctr>
a0802238:	00000000 	nop
a080223c:	27c20014 	addiu	v0,s8,20
a0802240:	00402021 	move	a0,v0
a0802244:	0c20071b 	jal	a0801c6c <s_reset>
a0802248:	00000000 	nop
a080224c:	27c20014 	addiu	v0,s8,20
a0802250:	00402021 	move	a0,v0
a0802254:	0c200748 	jal	a0801d20 <disable_interrupt_all>
a0802258:	00000000 	nop
a080225c:	27c20014 	addiu	v0,s8,20
a0802260:	00402021 	move	a0,v0
a0802264:	0c20075a 	jal	a0801d68 <set_mac_addr>
a0802268:	00000000 	nop
a080226c:	03c0e821 	move	sp,s8
a0802270:	8fbf004c 	lw	ra,76(sp)
a0802274:	8fbe0048 	lw	s8,72(sp)
a0802278:	27bd0050 	addiu	sp,sp,80
a080227c:	03e00008 	jr	ra
a0802280:	00000000 	nop

a0802284 <do_wait_recv_package>:
a0802284:	27bdfff8 	addiu	sp,sp,-8
a0802288:	afbe0004 	sw	s8,4(sp)
a080228c:	03a0f021 	move	s8,sp
a0802290:	03c0e821 	move	sp,s8
a0802294:	8fbe0004 	lw	s8,4(sp)
a0802298:	27bd0008 	addiu	sp,sp,8
a080229c:	03e00008 	jr	ra
a08022a0:	00000000 	nop
	...

a08022b0 <init_page_table>:
a08022b0:	27bdffe0 	addiu	sp,sp,-32
a08022b4:	afbf001c 	sw	ra,28(sp)
a08022b8:	afbe0018 	sw	s8,24(sp)
a08022bc:	03a0f021 	move	s8,sp
a08022c0:	afc00010 	sw	zero,16(s8)
a08022c4:	082008d4 	j	a0802350 <init_page_table+0xa0>
a08022c8:	00000000 	nop
a08022cc:	8fc30010 	lw	v1,16(s8)
a08022d0:	8fc40010 	lw	a0,16(s8)
a08022d4:	3c02a083 	lui	v0,0xa083
a08022d8:	00031900 	sll	v1,v1,0x4
a08022dc:	2442d910 	addiu	v0,v0,-9968
a08022e0:	00621021 	addu	v0,v1,v0
a08022e4:	ac440000 	sw	a0,0(v0)
a08022e8:	8fc40010 	lw	a0,16(s8)
a08022ec:	8fc50010 	lw	a1,16(s8)
a08022f0:	3c02a083 	lui	v0,0xa083
a08022f4:	2443d910 	addiu	v1,v0,-9968
a08022f8:	00041100 	sll	v0,a0,0x4
a08022fc:	00621021 	addu	v0,v1,v0
a0802300:	ac450004 	sw	a1,4(v0)
a0802304:	8fc20010 	lw	v0,16(s8)
a0802308:	3c04a083 	lui	a0,0xa083
a080230c:	00021040 	sll	v0,v0,0x1
a0802310:	24420001 	addiu	v0,v0,1
a0802314:	000218c0 	sll	v1,v0,0x3
a0802318:	2482d910 	addiu	v0,a0,-9968
a080231c:	00621021 	addu	v0,v1,v0
a0802320:	ac400000 	sw	zero,0(v0)
a0802324:	8fc20010 	lw	v0,16(s8)
a0802328:	3c04a083 	lui	a0,0xa083
a080232c:	00021040 	sll	v0,v0,0x1
a0802330:	24420001 	addiu	v0,v0,1
a0802334:	000218c0 	sll	v1,v0,0x3
a0802338:	2482d910 	addiu	v0,a0,-9968
a080233c:	00621021 	addu	v0,v1,v0
a0802340:	a0400004 	sb	zero,4(v0)
a0802344:	8fc20010 	lw	v0,16(s8)
a0802348:	24420001 	addiu	v0,v0,1
a080234c:	afc20010 	sw	v0,16(s8)
a0802350:	8fc20010 	lw	v0,16(s8)
a0802354:	28420400 	slti	v0,v0,1024
a0802358:	1440ffdc 	bnez	v0,a08022cc <init_page_table+0x1c>
a080235c:	00000000 	nop
a0802360:	afc00010 	sw	zero,16(s8)
a0802364:	082008e3 	j	a080238c <init_page_table+0xdc>
a0802368:	00000000 	nop
a080236c:	8fc30010 	lw	v1,16(s8)
a0802370:	3c02a083 	lui	v0,0xa083
a0802374:	24421910 	addiu	v0,v0,6416
a0802378:	00621021 	addu	v0,v1,v0
a080237c:	a0400000 	sb	zero,0(v0)
a0802380:	8fc20010 	lw	v0,16(s8)
a0802384:	24420001 	addiu	v0,v0,1
a0802388:	afc20010 	sw	v0,16(s8)
a080238c:	8fc20010 	lw	v0,16(s8)
a0802390:	28420400 	slti	v0,v0,1024
a0802394:	1440fff5 	bnez	v0,a080236c <init_page_table+0xbc>
a0802398:	00000000 	nop
a080239c:	afc00010 	sw	zero,16(s8)
a08023a0:	082008f8 	j	a08023e0 <init_page_table+0x130>
a08023a4:	00000000 	nop
a08023a8:	24040014 	li	a0,20
a08023ac:	0c200254 	jal	a0800950 <set_EntryLo0>
a08023b0:	00000000 	nop
a08023b4:	24040014 	li	a0,20
a08023b8:	0c200257 	jal	a080095c <set_EntryLo1>
a08023bc:	00000000 	nop
a08023c0:	8fc40010 	lw	a0,16(s8)
a08023c4:	0c20025a 	jal	a0800968 <set_cp0_Index>
a08023c8:	00000000 	nop
a08023cc:	0c20025d 	jal	a0800974 <set_PageMask>
a08023d0:	00000000 	nop
a08023d4:	8fc20010 	lw	v0,16(s8)
a08023d8:	24420001 	addiu	v0,v0,1
a08023dc:	afc20010 	sw	v0,16(s8)
a08023e0:	8fc20010 	lw	v0,16(s8)
a08023e4:	28420020 	slti	v0,v0,32
a08023e8:	1440ffef 	bnez	v0,a08023a8 <init_page_table+0xf8>
a08023ec:	00000000 	nop
a08023f0:	03c0e821 	move	sp,s8
a08023f4:	8fbf001c 	lw	ra,28(sp)
a08023f8:	8fbe0018 	lw	s8,24(sp)
a08023fc:	27bd0020 	addiu	sp,sp,32
a0802400:	03e00008 	jr	ra
a0802404:	00000000 	nop

a0802408 <init_memory>:
a0802408:	27bdffe8 	addiu	sp,sp,-24
a080240c:	afbf0014 	sw	ra,20(sp)
a0802410:	afbe0010 	sw	s8,16(sp)
a0802414:	03a0f021 	move	s8,sp
a0802418:	0c2008ac 	jal	a08022b0 <init_page_table>
a080241c:	00000000 	nop
a0802420:	03c0e821 	move	sp,s8
a0802424:	8fbf0014 	lw	ra,20(sp)
a0802428:	8fbe0010 	lw	s8,16(sp)
a080242c:	27bd0018 	addiu	sp,sp,24
a0802430:	03e00008 	jr	ra
a0802434:	00000000 	nop

a0802438 <init_pcb>:
a0802438:	27bdffe0 	addiu	sp,sp,-32
a080243c:	afbf001c 	sw	ra,28(sp)
a0802440:	afbe0018 	sw	s8,24(sp)
a0802444:	03a0f021 	move	s8,sp
a0802448:	afc00010 	sw	zero,16(s8)
a080244c:	08200940 	j	a0802500 <init_pcb+0xc8>
a0802450:	00000000 	nop
a0802454:	8fc40010 	lw	a0,16(s8)
a0802458:	3c02a083 	lui	v0,0xa083
a080245c:	24451d10 	addiu	a1,v0,7440
a0802460:	00801021 	move	v0,a0
a0802464:	00021900 	sll	v1,v0,0x4
a0802468:	00031080 	sll	v0,v1,0x2
a080246c:	00431023 	subu	v0,v0,v1
a0802470:	00441023 	subu	v0,v0,a0
a0802474:	000210c0 	sll	v0,v0,0x3
a0802478:	00a21821 	addu	v1,a1,v0
a080247c:	24020003 	li	v0,3
a0802480:	ac620154 	sw	v0,340(v1)
a0802484:	8fc40010 	lw	a0,16(s8)
a0802488:	00801021 	move	v0,a0
a080248c:	00021900 	sll	v1,v0,0x4
a0802490:	00031080 	sll	v0,v1,0x2
a0802494:	00431023 	subu	v0,v0,v1
a0802498:	00441023 	subu	v0,v0,a0
a080249c:	000210c0 	sll	v0,v0,0x3
a08024a0:	24430160 	addiu	v1,v0,352
a08024a4:	3c02a083 	lui	v0,0xa083
a08024a8:	24421d10 	addiu	v0,v0,7440
a08024ac:	00621021 	addu	v0,v1,v0
a08024b0:	00402021 	move	a0,v0
a08024b4:	0c201190 	jal	a0804640 <queue_init>
a08024b8:	00000000 	nop
a08024bc:	8fc40010 	lw	a0,16(s8)
a08024c0:	00801021 	move	v0,a0
a08024c4:	00021900 	sll	v1,v0,0x4
a08024c8:	00031080 	sll	v0,v1,0x2
a08024cc:	00431023 	subu	v0,v0,v1
a08024d0:	00441023 	subu	v0,v0,a0
a08024d4:	000210c0 	sll	v0,v0,0x3
a08024d8:	24430168 	addiu	v1,v0,360
a08024dc:	3c02a083 	lui	v0,0xa083
a08024e0:	24421d10 	addiu	v0,v0,7440
a08024e4:	00621021 	addu	v0,v1,v0
a08024e8:	00402021 	move	a0,v0
a08024ec:	0c201190 	jal	a0804640 <queue_init>
a08024f0:	00000000 	nop
a08024f4:	8fc20010 	lw	v0,16(s8)
a08024f8:	24420001 	addiu	v0,v0,1
a08024fc:	afc20010 	sw	v0,16(s8)
a0802500:	8fc20010 	lw	v0,16(s8)
a0802504:	28420010 	slti	v0,v0,16
a0802508:	1440ffd2 	bnez	v0,a0802454 <init_pcb+0x1c>
a080250c:	00000000 	nop
a0802510:	3c02a083 	lui	v0,0xa083
a0802514:	24441e88 	addiu	a0,v0,7816
a0802518:	3c02a081 	lui	v0,0xa081
a080251c:	2445a504 	addiu	a1,v0,-23292
a0802520:	24060001 	li	a2,1
a0802524:	0c200fdb 	jal	a0803f6c <give_pcb>
a0802528:	00000000 	nop
a080252c:	3c02a083 	lui	v0,0xa083
a0802530:	24431d10 	addiu	v1,v0,7440
a0802534:	3c02a0ef 	lui	v0,0xa0ef
a0802538:	3442f800 	ori	v0,v0,0xf800
a080253c:	ac620110 	sw	v0,272(v1)
a0802540:	3c02a083 	lui	v0,0xa083
a0802544:	24431d10 	addiu	v1,v0,7440
a0802548:	3c02a0f0 	lui	v0,0xa0f0
a080254c:	ac620074 	sw	v0,116(v1)
a0802550:	3c02a083 	lui	v0,0xa083
a0802554:	24431d10 	addiu	v1,v0,7440
a0802558:	3c02a0ef 	lui	v0,0xa0ef
a080255c:	3442f800 	ori	v0,v0,0xf800
a0802560:	ac62013c 	sw	v0,316(v1)
a0802564:	3c02a083 	lui	v0,0xa083
a0802568:	24431d10 	addiu	v1,v0,7440
a080256c:	3c02a0f0 	lui	v0,0xa0f0
a0802570:	ac620138 	sw	v0,312(v1)
a0802574:	3c02a083 	lui	v0,0xa083
a0802578:	24421d10 	addiu	v0,v0,7440
a080257c:	ac400148 	sw	zero,328(v0)
a0802580:	3c02a083 	lui	v0,0xa083
a0802584:	24431d10 	addiu	v1,v0,7440
a0802588:	24020001 	li	v0,1
a080258c:	ac620154 	sw	v0,340(v1)
a0802590:	3c02a083 	lui	v0,0xa083
a0802594:	24421d10 	addiu	v0,v0,7440
a0802598:	ac400158 	sw	zero,344(v0)
a080259c:	3c03a081 	lui	v1,0xa081
a08025a0:	3c02a083 	lui	v0,0xa083
a08025a4:	24421d10 	addiu	v0,v0,7440
a08025a8:	ac62aba8 	sw	v0,-21592(v1)
a08025ac:	03c0e821 	move	sp,s8
a08025b0:	8fbf001c 	lw	ra,28(sp)
a08025b4:	8fbe0018 	lw	s8,24(sp)
a08025b8:	27bd0020 	addiu	sp,sp,32
a08025bc:	03e00008 	jr	ra
a08025c0:	00000000 	nop

a08025c4 <init_exception_handler>:
a08025c4:	27bdfff0 	addiu	sp,sp,-16
a08025c8:	afbe000c 	sw	s8,12(sp)
a08025cc:	03a0f021 	move	s8,sp
a08025d0:	afc00000 	sw	zero,0(s8)
a08025d4:	afc00000 	sw	zero,0(s8)
a08025d8:	08200983 	j	a080260c <init_exception_handler+0x48>
a08025dc:	00000000 	nop
a08025e0:	8fc30000 	lw	v1,0(s8)
a08025e4:	3c02a080 	lui	v0,0xa080
a08025e8:	24440874 	addiu	a0,v0,2164
a08025ec:	3c02a083 	lui	v0,0xa083
a08025f0:	00031880 	sll	v1,v1,0x2
a08025f4:	2442d890 	addiu	v0,v0,-10096
a08025f8:	00621021 	addu	v0,v1,v0
a08025fc:	ac440000 	sw	a0,0(v0)
a0802600:	8fc20000 	lw	v0,0(s8)
a0802604:	24420001 	addiu	v0,v0,1
a0802608:	afc20000 	sw	v0,0(s8)
a080260c:	8fc20000 	lw	v0,0(s8)
a0802610:	28420020 	slti	v0,v0,32
a0802614:	1440fff2 	bnez	v0,a08025e0 <init_exception_handler+0x1c>
a0802618:	00000000 	nop
a080261c:	3c02a080 	lui	v0,0xa080
a0802620:	244305ac 	addiu	v1,v0,1452
a0802624:	3c02a083 	lui	v0,0xa083
a0802628:	ac43d890 	sw	v1,-10096(v0)
a080262c:	3c02a080 	lui	v0,0xa080
a0802630:	244306a0 	addiu	v1,v0,1696
a0802634:	3c02a083 	lui	v0,0xa083
a0802638:	2442d890 	addiu	v0,v0,-10096
a080263c:	ac430020 	sw	v1,32(v0)
a0802640:	3c02a080 	lui	v0,0xa080
a0802644:	2443078c 	addiu	v1,v0,1932
a0802648:	3c02a083 	lui	v0,0xa083
a080264c:	2442d890 	addiu	v0,v0,-10096
a0802650:	ac430008 	sw	v1,8(v0)
a0802654:	3c02a080 	lui	v0,0xa080
a0802658:	2443078c 	addiu	v1,v0,1932
a080265c:	3c02a083 	lui	v0,0xa083
a0802660:	2442d890 	addiu	v0,v0,-10096
a0802664:	ac43000c 	sw	v1,12(v0)
a0802668:	03c0e821 	move	sp,s8
a080266c:	8fbe000c 	lw	s8,12(sp)
a0802670:	27bd0010 	addiu	sp,sp,16
a0802674:	03e00008 	jr	ra
a0802678:	00000000 	nop

a080267c <init_exception>:
a080267c:	27bdffe0 	addiu	sp,sp,-32
a0802680:	afbf001c 	sw	ra,28(sp)
a0802684:	afbe0018 	sw	s8,24(sp)
a0802688:	03a0f021 	move	s8,sp
a080268c:	0c20022f 	jal	a08008bc <get_cp0_status>
a0802690:	00000000 	nop
a0802694:	afc20010 	sw	v0,16(s8)
a0802698:	0c20022c 	jal	a08008b0 <dis_interrupt>
a080269c:	00000000 	nop
a08026a0:	0c200971 	jal	a08025c4 <init_exception_handler>
a08026a4:	00000000 	nop
a08026a8:	3c02a080 	lui	v0,0xa080
a08026ac:	244305ac 	addiu	v1,v0,1452
a08026b0:	3c02a080 	lui	v0,0xa080
a08026b4:	244204b0 	addiu	v0,v0,1200
a08026b8:	00621823 	subu	v1,v1,v0
a08026bc:	3c028000 	lui	v0,0x8000
a08026c0:	34440180 	ori	a0,v0,0x180
a08026c4:	3c02a080 	lui	v0,0xa080
a08026c8:	244504b0 	addiu	a1,v0,1200
a08026cc:	00603021 	move	a2,v1
a08026d0:	0c2016ba 	jal	a0805ae8 <memcpy>
a08026d4:	00000000 	nop
a08026d8:	3c02a080 	lui	v0,0xa080
a08026dc:	24430930 	addiu	v1,v0,2352
a08026e0:	3c02a080 	lui	v0,0xa080
a08026e4:	24420910 	addiu	v0,v0,2320
a08026e8:	00621823 	subu	v1,v1,v0
a08026ec:	3c048000 	lui	a0,0x8000
a08026f0:	3c02a080 	lui	v0,0xa080
a08026f4:	24450910 	addiu	a1,v0,2320
a08026f8:	00603021 	move	a2,v1
a08026fc:	0c2016ba 	jal	a0805ae8 <memcpy>
a0802700:	00000000 	nop
a0802704:	0c200226 	jal	a0800898 <init_timer>
a0802708:	00000000 	nop
a080270c:	8fc30010 	lw	v1,16(s8)
a0802710:	3c021000 	lui	v0,0x1000
a0802714:	34428001 	ori	v0,v0,0x8001
a0802718:	00621025 	or	v0,v1,v0
a080271c:	00402021 	move	a0,v0
a0802720:	0c200232 	jal	a08008c8 <init_cp0_status>
a0802724:	00000000 	nop
a0802728:	03c0e821 	move	sp,s8
a080272c:	8fbf001c 	lw	ra,28(sp)
a0802730:	8fbe0018 	lw	s8,24(sp)
a0802734:	27bd0020 	addiu	sp,sp,32
a0802738:	03e00008 	jr	ra
a080273c:	00000000 	nop

a0802740 <init_syscall>:
a0802740:	27bdfff8 	addiu	sp,sp,-8
a0802744:	afbe0004 	sw	s8,4(sp)
a0802748:	03a0f021 	move	s8,sp
a080274c:	3c02a080 	lui	v0,0xa080
a0802750:	24433b7c 	addiu	v1,v0,15228
a0802754:	3c02a083 	lui	v0,0xa083
a0802758:	2442d790 	addiu	v0,v0,-10352
a080275c:	ac430008 	sw	v1,8(v0)
a0802760:	3c02a080 	lui	v0,0xa080
a0802764:	24433c04 	addiu	v1,v0,15364
a0802768:	3c02a083 	lui	v0,0xa083
a080276c:	2442d790 	addiu	v0,v0,-10352
a0802770:	ac430028 	sw	v1,40(v0)
a0802774:	3c02a080 	lui	v0,0xa080
a0802778:	24433c5c 	addiu	v1,v0,15452
a080277c:	3c02a083 	lui	v0,0xa083
a0802780:	2442d790 	addiu	v0,v0,-10352
a0802784:	ac43002c 	sw	v1,44(v0)
a0802788:	3c02a080 	lui	v0,0xa080
a080278c:	24433ccc 	addiu	v1,v0,15564
a0802790:	3c02a083 	lui	v0,0xa083
a0802794:	2442d790 	addiu	v0,v0,-10352
a0802798:	ac430030 	sw	v1,48(v0)
a080279c:	3c02a080 	lui	v0,0xa080
a08027a0:	24430ff0 	addiu	v1,v0,4080
a08027a4:	3c02a083 	lui	v0,0xa083
a08027a8:	2442d790 	addiu	v0,v0,-10352
a08027ac:	ac430050 	sw	v1,80(v0)
a08027b0:	3c02a080 	lui	v0,0xa080
a08027b4:	24431078 	addiu	v1,v0,4216
a08027b8:	3c02a083 	lui	v0,0xa083
a08027bc:	2442d790 	addiu	v0,v0,-10352
a08027c0:	ac43005c 	sw	v1,92(v0)
a08027c4:	3c02a080 	lui	v0,0xa080
a08027c8:	24430fb0 	addiu	v1,v0,4016
a08027cc:	3c02a083 	lui	v0,0xa083
a08027d0:	2442d790 	addiu	v0,v0,-10352
a08027d4:	ac430058 	sw	v1,88(v0)
a08027d8:	3c02a080 	lui	v0,0xa080
a08027dc:	244330ac 	addiu	v1,v0,12460
a08027e0:	3c02a083 	lui	v0,0xa083
a08027e4:	2442d790 	addiu	v0,v0,-10352
a08027e8:	ac430078 	sw	v1,120(v0)
a08027ec:	3c02a080 	lui	v0,0xa080
a08027f0:	244330f4 	addiu	v1,v0,12532
a08027f4:	3c02a083 	lui	v0,0xa083
a08027f8:	2442d790 	addiu	v0,v0,-10352
a08027fc:	ac43007c 	sw	v1,124(v0)
a0802800:	3c02a080 	lui	v0,0xa080
a0802804:	24433178 	addiu	v1,v0,12664
a0802808:	3c02a083 	lui	v0,0xa083
a080280c:	2442d790 	addiu	v0,v0,-10352
a0802810:	ac430080 	sw	v1,128(v0)
a0802814:	3c02a080 	lui	v0,0xa080
a0802818:	24433d44 	addiu	v1,v0,15684
a080281c:	3c02a083 	lui	v0,0xa083
a0802820:	2442d790 	addiu	v0,v0,-10352
a0802824:	ac4300a0 	sw	v1,160(v0)
a0802828:	3c02a080 	lui	v0,0xa080
a080282c:	24430ebc 	addiu	v1,v0,3772
a0802830:	3c02a083 	lui	v0,0xa083
a0802834:	2442d790 	addiu	v0,v0,-10352
a0802838:	ac4300a4 	sw	v1,164(v0)
a080283c:	3c02a083 	lui	v0,0xa083
a0802840:	2443d790 	addiu	v1,v0,-10352
a0802844:	3c02a080 	lui	v0,0xa080
a0802848:	24423f40 	addiu	v0,v0,16192
a080284c:	ac6200a8 	sw	v0,168(v1)
a0802850:	3c02a080 	lui	v0,0xa080
a0802854:	24434174 	addiu	v1,v0,16756
a0802858:	3c02a083 	lui	v0,0xa083
a080285c:	2442d790 	addiu	v0,v0,-10352
a0802860:	ac4300b8 	sw	v1,184(v0)
a0802864:	3c02a080 	lui	v0,0xa080
a0802868:	24434444 	addiu	v1,v0,17476
a080286c:	3c02a083 	lui	v0,0xa083
a0802870:	2442d790 	addiu	v0,v0,-10352
a0802874:	ac4300bc 	sw	v1,188(v0)
a0802878:	3c02a080 	lui	v0,0xa080
a080287c:	24434268 	addiu	v1,v0,17000
a0802880:	3c02a083 	lui	v0,0xa083
a0802884:	2442d790 	addiu	v0,v0,-10352
a0802888:	ac4300c0 	sw	v1,192(v0)
a080288c:	3c02a080 	lui	v0,0xa080
a0802890:	24434320 	addiu	v1,v0,17184
a0802894:	3c02a083 	lui	v0,0xa083
a0802898:	2442d790 	addiu	v0,v0,-10352
a080289c:	ac4300c4 	sw	v1,196(v0)
a08028a0:	3c02a080 	lui	v0,0xa080
a08028a4:	24432f00 	addiu	v1,v0,12032
a08028a8:	3c02a083 	lui	v0,0xa083
a08028ac:	2442d790 	addiu	v0,v0,-10352
a08028b0:	ac4300c8 	sw	v1,200(v0)
a08028b4:	3c02a080 	lui	v0,0xa080
a08028b8:	24432f50 	addiu	v1,v0,12112
a08028bc:	3c02a083 	lui	v0,0xa083
a08028c0:	2442d790 	addiu	v0,v0,-10352
a08028c4:	ac4300cc 	sw	v1,204(v0)
a08028c8:	3c02a080 	lui	v0,0xa080
a08028cc:	24432fa4 	addiu	v1,v0,12196
a08028d0:	3c02a083 	lui	v0,0xa083
a08028d4:	2442d790 	addiu	v0,v0,-10352
a08028d8:	ac4300d0 	sw	v1,208(v0)
a08028dc:	3c02a080 	lui	v0,0xa080
a08028e0:	24432df0 	addiu	v1,v0,11760
a08028e4:	3c02a083 	lui	v0,0xa083
a08028e8:	2442d790 	addiu	v0,v0,-10352
a08028ec:	ac4300d4 	sw	v1,212(v0)
a08028f0:	3c02a080 	lui	v0,0xa080
a08028f4:	24432e2c 	addiu	v1,v0,11820
a08028f8:	3c02a083 	lui	v0,0xa083
a08028fc:	2442d790 	addiu	v0,v0,-10352
a0802900:	ac4300d8 	sw	v1,216(v0)
a0802904:	3c02a080 	lui	v0,0xa080
a0802908:	24432e84 	addiu	v1,v0,11908
a080290c:	3c02a083 	lui	v0,0xa083
a0802910:	2442d790 	addiu	v0,v0,-10352
a0802914:	ac4300dc 	sw	v1,220(v0)
a0802918:	3c02a080 	lui	v0,0xa080
a080291c:	24432ec0 	addiu	v1,v0,11968
a0802920:	3c02a083 	lui	v0,0xa083
a0802924:	2442d790 	addiu	v0,v0,-10352
a0802928:	ac4300e0 	sw	v1,224(v0)
a080292c:	3c02a080 	lui	v0,0xa080
a0802930:	24432d00 	addiu	v1,v0,11520
a0802934:	3c02a083 	lui	v0,0xa083
a0802938:	2442d790 	addiu	v0,v0,-10352
a080293c:	ac4300e4 	sw	v1,228(v0)
a0802940:	3c02a080 	lui	v0,0xa080
a0802944:	24432d58 	addiu	v1,v0,11608
a0802948:	3c02a083 	lui	v0,0xa083
a080294c:	2442d790 	addiu	v0,v0,-10352
a0802950:	ac4300e8 	sw	v1,232(v0)
a0802954:	3c02a080 	lui	v0,0xa080
a0802958:	24435450 	addiu	v1,v0,21584
a080295c:	3c02a083 	lui	v0,0xa083
a0802960:	2442d790 	addiu	v0,v0,-10352
a0802964:	ac43008c 	sw	v1,140(v0)
a0802968:	3c02a080 	lui	v0,0xa080
a080296c:	2443559c 	addiu	v1,v0,21916
a0802970:	3c02a083 	lui	v0,0xa083
a0802974:	2442d790 	addiu	v0,v0,-10352
a0802978:	ac430090 	sw	v1,144(v0)
a080297c:	3c02a080 	lui	v0,0xa080
a0802980:	24435784 	addiu	v1,v0,22404
a0802984:	3c02a083 	lui	v0,0xa083
a0802988:	2442d790 	addiu	v0,v0,-10352
a080298c:	ac430094 	sw	v1,148(v0)
a0802990:	3c02a080 	lui	v0,0xa080
a0802994:	24435828 	addiu	v1,v0,22568
a0802998:	3c02a083 	lui	v0,0xa083
a080299c:	2442d790 	addiu	v0,v0,-10352
a08029a0:	ac430098 	sw	v1,152(v0)
a08029a4:	3c02a080 	lui	v0,0xa080
a08029a8:	24435958 	addiu	v1,v0,22872
a08029ac:	3c02a083 	lui	v0,0xa083
a08029b0:	2442d790 	addiu	v0,v0,-10352
a08029b4:	ac43009c 	sw	v1,156(v0)
a08029b8:	3c02a080 	lui	v0,0xa080
a08029bc:	24432200 	addiu	v1,v0,8704
a08029c0:	3c02a083 	lui	v0,0xa083
a08029c4:	2442d790 	addiu	v0,v0,-10352
a08029c8:	ac430018 	sw	v1,24(v0)
a08029cc:	3c02a080 	lui	v0,0xa080
a08029d0:	24431e3c 	addiu	v1,v0,7740
a08029d4:	3c02a083 	lui	v0,0xa083
a08029d8:	2442d790 	addiu	v0,v0,-10352
a08029dc:	ac43001c 	sw	v1,28(v0)
a08029e0:	3c02a080 	lui	v0,0xa080
a08029e4:	244320cc 	addiu	v1,v0,8396
a08029e8:	3c02a083 	lui	v0,0xa083
a08029ec:	2442d790 	addiu	v0,v0,-10352
a08029f0:	ac430020 	sw	v1,32(v0)
a08029f4:	03c0e821 	move	sp,s8
a08029f8:	8fbe0004 	lw	s8,4(sp)
a08029fc:	27bd0008 	addiu	sp,sp,8
a0802a00:	03e00008 	jr	ra
a0802a04:	00000000 	nop

a0802a08 <init_queue>:
a0802a08:	27bdffe8 	addiu	sp,sp,-24
a0802a0c:	afbf0014 	sw	ra,20(sp)
a0802a10:	afbe0010 	sw	s8,16(sp)
a0802a14:	03a0f021 	move	s8,sp
a0802a18:	3c02a081 	lui	v0,0xa081
a0802a1c:	2444abac 	addiu	a0,v0,-21588
a0802a20:	0c201190 	jal	a0804640 <queue_init>
a0802a24:	00000000 	nop
a0802a28:	3c02a081 	lui	v0,0xa081
a0802a2c:	2444abbc 	addiu	a0,v0,-21572
a0802a30:	0c201190 	jal	a0804640 <queue_init>
a0802a34:	00000000 	nop
a0802a38:	3c02a081 	lui	v0,0xa081
a0802a3c:	2444abc4 	addiu	a0,v0,-21564
a0802a40:	0c201190 	jal	a0804640 <queue_init>
a0802a44:	00000000 	nop
a0802a48:	3c02a081 	lui	v0,0xa081
a0802a4c:	2444ab98 	addiu	a0,v0,-21608
a0802a50:	0c201190 	jal	a0804640 <queue_init>
a0802a54:	00000000 	nop
a0802a58:	3c02a081 	lui	v0,0xa081
a0802a5c:	2444aba0 	addiu	a0,v0,-21600
a0802a60:	0c201190 	jal	a0804640 <queue_init>
a0802a64:	00000000 	nop
a0802a68:	3c02a081 	lui	v0,0xa081
a0802a6c:	2444abb4 	addiu	a0,v0,-21580
a0802a70:	0c201190 	jal	a0804640 <queue_init>
a0802a74:	00000000 	nop
a0802a78:	03c0e821 	move	sp,s8
a0802a7c:	8fbf0014 	lw	ra,20(sp)
a0802a80:	8fbe0010 	lw	s8,16(sp)
a0802a84:	27bd0018 	addiu	sp,sp,24
a0802a88:	03e00008 	jr	ra
a0802a8c:	00000000 	nop

a0802a90 <irq_timer>:
a0802a90:	27bdffe8 	addiu	sp,sp,-24
a0802a94:	afbf0014 	sw	ra,20(sp)
a0802a98:	afbe0010 	sw	s8,16(sp)
a0802a9c:	03a0f021 	move	s8,sp
a0802aa0:	3c02a081 	lui	v0,0xa081
a0802aa4:	8c43bec0 	lw	v1,-16704(v0)
a0802aa8:	3c020001 	lui	v0,0x1
a0802aac:	344286a0 	ori	v0,v0,0x86a0
a0802ab0:	00621821 	addu	v1,v1,v0
a0802ab4:	3c02a081 	lui	v0,0xa081
a0802ab8:	ac43bec0 	sw	v1,-16704(v0)
a0802abc:	0c20041e 	jal	a0801078 <screen_reflush>
a0802ac0:	00000000 	nop
a0802ac4:	0c200226 	jal	a0800898 <init_timer>
a0802ac8:	00000000 	nop
a0802acc:	0c2000c9 	jal	a0800324 <do_scheduler>
a0802ad0:	00000000 	nop
a0802ad4:	03c0e821 	move	sp,s8
a0802ad8:	8fbf0014 	lw	ra,20(sp)
a0802adc:	8fbe0010 	lw	s8,16(sp)
a0802ae0:	27bd0018 	addiu	sp,sp,24
a0802ae4:	03e00008 	jr	ra
a0802ae8:	00000000 	nop

a0802aec <interrupt_helper>:
a0802aec:	27bdffd8 	addiu	sp,sp,-40
a0802af0:	afbf0024 	sw	ra,36(sp)
a0802af4:	afbe0020 	sw	s8,32(sp)
a0802af8:	03a0f021 	move	s8,sp
a0802afc:	afc40028 	sw	a0,40(s8)
a0802b00:	afc5002c 	sw	a1,44(s8)
a0802b04:	8fc30028 	lw	v1,40(s8)
a0802b08:	8fc2002c 	lw	v0,44(s8)
a0802b0c:	00621024 	and	v0,v1,v0
a0802b10:	3042ff00 	andi	v0,v0,0xff00
a0802b14:	00021202 	srl	v0,v0,0x8
a0802b18:	afc20018 	sw	v0,24(s8)
a0802b1c:	8fc30018 	lw	v1,24(s8)
a0802b20:	24020080 	li	v0,128
a0802b24:	14620009 	bne	v1,v0,a0802b4c <interrupt_helper+0x60>
a0802b28:	00000000 	nop
a0802b2c:	0c200aa4 	jal	a0802a90 <irq_timer>
a0802b30:	00000000 	nop
a0802b34:	03c0e821 	move	sp,s8
a0802b38:	8fbf0024 	lw	ra,36(sp)
a0802b3c:	8fbe0020 	lw	s8,32(sp)
a0802b40:	27bd0028 	addiu	sp,sp,40
a0802b44:	03e00008 	jr	ra
a0802b48:	00000000 	nop
a0802b4c:	24040001 	li	a0,1
a0802b50:	24050005 	li	a1,5
a0802b54:	0c20028c 	jal	a0800a30 <vt100_move_cursor>
a0802b58:	00000000 	nop
a0802b5c:	3c02a081 	lui	v0,0xa081
a0802b60:	8c43beb0 	lw	v1,-16720(v0)
a0802b64:	3c02a081 	lui	v0,0xa081
a0802b68:	8c42aba8 	lw	v0,-21592(v0)
a0802b6c:	8c420118 	lw	v0,280(v0)
a0802b70:	afa20010 	sw	v0,16(sp)
a0802b74:	3c02a081 	lui	v0,0xa081
a0802b78:	24449920 	addiu	a0,v0,-26336
a0802b7c:	8fc50028 	lw	a1,40(s8)
a0802b80:	8fc6002c 	lw	a2,44(s8)
a0802b84:	00603821 	move	a3,v1
a0802b88:	0c201959 	jal	a0806564 <printk>
a0802b8c:	00000000 	nop
a0802b90:	08200ae4 	j	a0802b90 <interrupt_helper+0xa4>
a0802b94:	00000000 	nop

a0802b98 <other_exception_handler>:
a0802b98:	27bdffd0 	addiu	sp,sp,-48
a0802b9c:	afbf002c 	sw	ra,44(sp)
a0802ba0:	afbe0028 	sw	s8,40(sp)
a0802ba4:	03a0f021 	move	s8,sp
a0802ba8:	afc40030 	sw	a0,48(s8)
a0802bac:	afc50034 	sw	a1,52(s8)
a0802bb0:	0c20023e 	jal	a08008f8 <get_cp0_badvaddr>
a0802bb4:	00000000 	nop
a0802bb8:	afc20020 	sw	v0,32(s8)
a0802bbc:	0c200238 	jal	a08008e0 <get_cp0_epc>
a0802bc0:	00000000 	nop
a0802bc4:	afc2001c 	sw	v0,28(s8)
a0802bc8:	3c02a081 	lui	v0,0xa081
a0802bcc:	8c43beb0 	lw	v1,-16720(v0)
a0802bd0:	8fc20020 	lw	v0,32(s8)
a0802bd4:	afa20010 	sw	v0,16(sp)
a0802bd8:	8fc2001c 	lw	v0,28(s8)
a0802bdc:	afa20014 	sw	v0,20(sp)
a0802be0:	3c02a081 	lui	v0,0xa081
a0802be4:	2444995c 	addiu	a0,v0,-26276
a0802be8:	8fc50030 	lw	a1,48(s8)
a0802bec:	8fc60034 	lw	a2,52(s8)
a0802bf0:	00603821 	move	a3,v1
a0802bf4:	0c201959 	jal	a0806564 <printk>
a0802bf8:	00000000 	nop
a0802bfc:	afc00018 	sw	zero,24(s8)
a0802c00:	08200b28 	j	a0802ca0 <other_exception_handler+0x108>
a0802c04:	00000000 	nop
a0802c08:	8fc20018 	lw	v0,24(s8)
a0802c0c:	3c03a083 	lui	v1,0xa083
a0802c10:	00022100 	sll	a0,v0,0x4
a0802c14:	2462d910 	addiu	v0,v1,-9968
a0802c18:	00821021 	addu	v0,a0,v0
a0802c1c:	8c460000 	lw	a2,0(v0)
a0802c20:	8fc40018 	lw	a0,24(s8)
a0802c24:	3c02a083 	lui	v0,0xa083
a0802c28:	2443d910 	addiu	v1,v0,-9968
a0802c2c:	00041100 	sll	v0,a0,0x4
a0802c30:	00621021 	addu	v0,v1,v0
a0802c34:	8c470004 	lw	a3,4(v0)
a0802c38:	8fc20018 	lw	v0,24(s8)
a0802c3c:	3c04a083 	lui	a0,0xa083
a0802c40:	00021040 	sll	v0,v0,0x1
a0802c44:	24420001 	addiu	v0,v0,1
a0802c48:	000218c0 	sll	v1,v0,0x3
a0802c4c:	2482d910 	addiu	v0,a0,-9968
a0802c50:	00621021 	addu	v0,v1,v0
a0802c54:	8c450000 	lw	a1,0(v0)
a0802c58:	8fc20018 	lw	v0,24(s8)
a0802c5c:	3c04a083 	lui	a0,0xa083
a0802c60:	00021040 	sll	v0,v0,0x1
a0802c64:	24420001 	addiu	v0,v0,1
a0802c68:	000218c0 	sll	v1,v0,0x3
a0802c6c:	2482d910 	addiu	v0,a0,-9968
a0802c70:	00621021 	addu	v0,v1,v0
a0802c74:	80420004 	lb	v0,4(v0)
a0802c78:	afa50010 	sw	a1,16(sp)
a0802c7c:	afa20014 	sw	v0,20(sp)
a0802c80:	3c02a081 	lui	v0,0xa081
a0802c84:	244499b0 	addiu	a0,v0,-26192
a0802c88:	8fc50018 	lw	a1,24(s8)
a0802c8c:	0c201959 	jal	a0806564 <printk>
a0802c90:	00000000 	nop
a0802c94:	8fc20018 	lw	v0,24(s8)
a0802c98:	24420001 	addiu	v0,v0,1
a0802c9c:	afc20018 	sw	v0,24(s8)
a0802ca0:	8fc20018 	lw	v0,24(s8)
a0802ca4:	2842000a 	slti	v0,v0,10
a0802ca8:	1440ffd7 	bnez	v0,a0802c08 <other_exception_handler+0x70>
a0802cac:	00000000 	nop
a0802cb0:	08200b2c 	j	a0802cb0 <other_exception_handler+0x118>
a0802cb4:	00000000 	nop

a0802cb8 <print_count>:
a0802cb8:	27bdffe8 	addiu	sp,sp,-24
a0802cbc:	afbf0014 	sw	ra,20(sp)
a0802cc0:	afbe0010 	sw	s8,16(sp)
a0802cc4:	03a0f021 	move	s8,sp
a0802cc8:	0c20023b 	jal	a08008ec <get_cp0_count>
a0802ccc:	00000000 	nop
a0802cd0:	00401821 	move	v1,v0
a0802cd4:	3c02a081 	lui	v0,0xa081
a0802cd8:	244499dc 	addiu	a0,v0,-26148
a0802cdc:	00602821 	move	a1,v1
a0802ce0:	0c201959 	jal	a0806564 <printk>
a0802ce4:	00000000 	nop
a0802ce8:	03c0e821 	move	sp,s8
a0802cec:	8fbf0014 	lw	ra,20(sp)
a0802cf0:	8fbe0010 	lw	s8,16(sp)
a0802cf4:	27bd0018 	addiu	sp,sp,24
a0802cf8:	03e00008 	jr	ra
a0802cfc:	00000000 	nop

a0802d00 <do_barrier_init>:
a0802d00:	27bdffe8 	addiu	sp,sp,-24
a0802d04:	afbf0014 	sw	ra,20(sp)
a0802d08:	afbe0010 	sw	s8,16(sp)
a0802d0c:	03a0f021 	move	s8,sp
a0802d10:	afc40018 	sw	a0,24(s8)
a0802d14:	afc5001c 	sw	a1,28(s8)
a0802d18:	8fc30018 	lw	v1,24(s8)
a0802d1c:	8fc2001c 	lw	v0,28(s8)
a0802d20:	ac620000 	sw	v0,0(v1)
a0802d24:	8fc20018 	lw	v0,24(s8)
a0802d28:	ac400004 	sw	zero,4(v0)
a0802d2c:	8fc20018 	lw	v0,24(s8)
a0802d30:	24420008 	addiu	v0,v0,8
a0802d34:	00402021 	move	a0,v0
a0802d38:	0c200c2b 	jal	a08030ac <do_mutex_lock_init>
a0802d3c:	00000000 	nop
a0802d40:	03c0e821 	move	sp,s8
a0802d44:	8fbf0014 	lw	ra,20(sp)
a0802d48:	8fbe0010 	lw	s8,16(sp)
a0802d4c:	27bd0018 	addiu	sp,sp,24
a0802d50:	03e00008 	jr	ra
a0802d54:	00000000 	nop

a0802d58 <do_barrier_wait>:
a0802d58:	27bdffe8 	addiu	sp,sp,-24
a0802d5c:	afbf0014 	sw	ra,20(sp)
a0802d60:	afbe0010 	sw	s8,16(sp)
a0802d64:	03a0f021 	move	s8,sp
a0802d68:	afc40018 	sw	a0,24(s8)
a0802d6c:	8fc20018 	lw	v0,24(s8)
a0802d70:	8c420004 	lw	v0,4(v0)
a0802d74:	24430001 	addiu	v1,v0,1
a0802d78:	8fc20018 	lw	v0,24(s8)
a0802d7c:	ac430004 	sw	v1,4(v0)
a0802d80:	8fc20018 	lw	v0,24(s8)
a0802d84:	8c430004 	lw	v1,4(v0)
a0802d88:	8fc20018 	lw	v0,24(s8)
a0802d8c:	8c420000 	lw	v0,0(v0)
a0802d90:	1462000a 	bne	v1,v0,a0802dbc <do_barrier_wait+0x64>
a0802d94:	00000000 	nop
a0802d98:	8fc20018 	lw	v0,24(s8)
a0802d9c:	24420008 	addiu	v0,v0,8
a0802da0:	00402021 	move	a0,v0
a0802da4:	0c200f33 	jal	a0803ccc <do_unblock_all>
a0802da8:	00000000 	nop
a0802dac:	8fc20018 	lw	v0,24(s8)
a0802db0:	ac400004 	sw	zero,4(v0)
a0802db4:	08200b74 	j	a0802dd0 <do_barrier_wait+0x78>
a0802db8:	00000000 	nop
a0802dbc:	8fc20018 	lw	v0,24(s8)
a0802dc0:	24420008 	addiu	v0,v0,8
a0802dc4:	00402021 	move	a0,v0
a0802dc8:	0c200f01 	jal	a0803c04 <do_block>
a0802dcc:	00000000 	nop
a0802dd0:	03c0e821 	move	sp,s8
a0802dd4:	8fbf0014 	lw	ra,20(sp)
a0802dd8:	8fbe0010 	lw	s8,16(sp)
a0802ddc:	27bd0018 	addiu	sp,sp,24
a0802de0:	03e00008 	jr	ra
a0802de4:	00000000 	nop
	...

a0802df0 <do_condition_init>:
a0802df0:	27bdffe8 	addiu	sp,sp,-24
a0802df4:	afbf0014 	sw	ra,20(sp)
a0802df8:	afbe0010 	sw	s8,16(sp)
a0802dfc:	03a0f021 	move	s8,sp
a0802e00:	afc40018 	sw	a0,24(s8)
a0802e04:	8fc20018 	lw	v0,24(s8)
a0802e08:	00402021 	move	a0,v0
a0802e0c:	0c201190 	jal	a0804640 <queue_init>
a0802e10:	00000000 	nop
a0802e14:	03c0e821 	move	sp,s8
a0802e18:	8fbf0014 	lw	ra,20(sp)
a0802e1c:	8fbe0010 	lw	s8,16(sp)
a0802e20:	27bd0018 	addiu	sp,sp,24
a0802e24:	03e00008 	jr	ra
a0802e28:	00000000 	nop

a0802e2c <do_condition_wait>:
a0802e2c:	27bdffe8 	addiu	sp,sp,-24
a0802e30:	afbf0014 	sw	ra,20(sp)
a0802e34:	afbe0010 	sw	s8,16(sp)
a0802e38:	03a0f021 	move	s8,sp
a0802e3c:	afc40018 	sw	a0,24(s8)
a0802e40:	afc5001c 	sw	a1,28(s8)
a0802e44:	8fc40018 	lw	a0,24(s8)
a0802e48:	0c200c5e 	jal	a0803178 <do_mutex_lock_release>
a0802e4c:	00000000 	nop
a0802e50:	8fc2001c 	lw	v0,28(s8)
a0802e54:	00402021 	move	a0,v0
a0802e58:	0c200f01 	jal	a0803c04 <do_block>
a0802e5c:	00000000 	nop
a0802e60:	8fc40018 	lw	a0,24(s8)
a0802e64:	0c200c3d 	jal	a08030f4 <do_mutex_lock_acquire>
a0802e68:	00000000 	nop
a0802e6c:	03c0e821 	move	sp,s8
a0802e70:	8fbf0014 	lw	ra,20(sp)
a0802e74:	8fbe0010 	lw	s8,16(sp)
a0802e78:	27bd0018 	addiu	sp,sp,24
a0802e7c:	03e00008 	jr	ra
a0802e80:	00000000 	nop

a0802e84 <do_condition_signal>:
a0802e84:	27bdffe8 	addiu	sp,sp,-24
a0802e88:	afbf0014 	sw	ra,20(sp)
a0802e8c:	afbe0010 	sw	s8,16(sp)
a0802e90:	03a0f021 	move	s8,sp
a0802e94:	afc40018 	sw	a0,24(s8)
a0802e98:	8fc20018 	lw	v0,24(s8)
a0802e9c:	00402021 	move	a0,v0
a0802ea0:	0c200f17 	jal	a0803c5c <do_unblock_one>
a0802ea4:	00000000 	nop
a0802ea8:	03c0e821 	move	sp,s8
a0802eac:	8fbf0014 	lw	ra,20(sp)
a0802eb0:	8fbe0010 	lw	s8,16(sp)
a0802eb4:	27bd0018 	addiu	sp,sp,24
a0802eb8:	03e00008 	jr	ra
a0802ebc:	00000000 	nop

a0802ec0 <do_condition_broadcast>:
a0802ec0:	27bdffe8 	addiu	sp,sp,-24
a0802ec4:	afbf0014 	sw	ra,20(sp)
a0802ec8:	afbe0010 	sw	s8,16(sp)
a0802ecc:	03a0f021 	move	s8,sp
a0802ed0:	afc40018 	sw	a0,24(s8)
a0802ed4:	8fc20018 	lw	v0,24(s8)
a0802ed8:	00402021 	move	a0,v0
a0802edc:	0c200f33 	jal	a0803ccc <do_unblock_all>
a0802ee0:	00000000 	nop
a0802ee4:	03c0e821 	move	sp,s8
a0802ee8:	8fbf0014 	lw	ra,20(sp)
a0802eec:	8fbe0010 	lw	s8,16(sp)
a0802ef0:	27bd0018 	addiu	sp,sp,24
a0802ef4:	03e00008 	jr	ra
a0802ef8:	00000000 	nop
a0802efc:	00000000 	nop

a0802f00 <do_semaphore_init>:
a0802f00:	27bdffe8 	addiu	sp,sp,-24
a0802f04:	afbf0014 	sw	ra,20(sp)
a0802f08:	afbe0010 	sw	s8,16(sp)
a0802f0c:	03a0f021 	move	s8,sp
a0802f10:	afc40018 	sw	a0,24(s8)
a0802f14:	afc5001c 	sw	a1,28(s8)
a0802f18:	8fc30018 	lw	v1,24(s8)
a0802f1c:	8fc2001c 	lw	v0,28(s8)
a0802f20:	ac620000 	sw	v0,0(v1)
a0802f24:	8fc20018 	lw	v0,24(s8)
a0802f28:	24420004 	addiu	v0,v0,4
a0802f2c:	00402021 	move	a0,v0
a0802f30:	0c201190 	jal	a0804640 <queue_init>
a0802f34:	00000000 	nop
a0802f38:	03c0e821 	move	sp,s8
a0802f3c:	8fbf0014 	lw	ra,20(sp)
a0802f40:	8fbe0010 	lw	s8,16(sp)
a0802f44:	27bd0018 	addiu	sp,sp,24
a0802f48:	03e00008 	jr	ra
a0802f4c:	00000000 	nop

a0802f50 <do_semaphore_up>:
a0802f50:	27bdffe8 	addiu	sp,sp,-24
a0802f54:	afbf0014 	sw	ra,20(sp)
a0802f58:	afbe0010 	sw	s8,16(sp)
a0802f5c:	03a0f021 	move	s8,sp
a0802f60:	afc40018 	sw	a0,24(s8)
a0802f64:	8fc20018 	lw	v0,24(s8)
a0802f68:	8c420000 	lw	v0,0(v0)
a0802f6c:	24430001 	addiu	v1,v0,1
a0802f70:	8fc20018 	lw	v0,24(s8)
a0802f74:	ac430000 	sw	v1,0(v0)
a0802f78:	8fc20018 	lw	v0,24(s8)
a0802f7c:	24420004 	addiu	v0,v0,4
a0802f80:	00402021 	move	a0,v0
a0802f84:	0c200f17 	jal	a0803c5c <do_unblock_one>
a0802f88:	00000000 	nop
a0802f8c:	03c0e821 	move	sp,s8
a0802f90:	8fbf0014 	lw	ra,20(sp)
a0802f94:	8fbe0010 	lw	s8,16(sp)
a0802f98:	27bd0018 	addiu	sp,sp,24
a0802f9c:	03e00008 	jr	ra
a0802fa0:	00000000 	nop

a0802fa4 <do_semaphore_down>:
a0802fa4:	27bdffe8 	addiu	sp,sp,-24
a0802fa8:	afbf0014 	sw	ra,20(sp)
a0802fac:	afbe0010 	sw	s8,16(sp)
a0802fb0:	03a0f021 	move	s8,sp
a0802fb4:	afc40018 	sw	a0,24(s8)
a0802fb8:	08200bf5 	j	a0802fd4 <do_semaphore_down+0x30>
a0802fbc:	00000000 	nop
a0802fc0:	8fc20018 	lw	v0,24(s8)
a0802fc4:	24420004 	addiu	v0,v0,4
a0802fc8:	00402021 	move	a0,v0
a0802fcc:	0c200f01 	jal	a0803c04 <do_block>
a0802fd0:	00000000 	nop
a0802fd4:	8fc20018 	lw	v0,24(s8)
a0802fd8:	8c420000 	lw	v0,0(v0)
a0802fdc:	1840fff8 	blez	v0,a0802fc0 <do_semaphore_down+0x1c>
a0802fe0:	00000000 	nop
a0802fe4:	8fc20018 	lw	v0,24(s8)
a0802fe8:	8c420000 	lw	v0,0(v0)
a0802fec:	2443ffff 	addiu	v1,v0,-1
a0802ff0:	8fc20018 	lw	v0,24(s8)
a0802ff4:	ac430000 	sw	v1,0(v0)
a0802ff8:	03c0e821 	move	sp,s8
a0802ffc:	8fbf0014 	lw	ra,20(sp)
a0803000:	8fbe0010 	lw	s8,16(sp)
a0803004:	27bd0018 	addiu	sp,sp,24
a0803008:	03e00008 	jr	ra
a080300c:	00000000 	nop

a0803010 <spin_lock_init>:
a0803010:	27bdfff8 	addiu	sp,sp,-8
a0803014:	afbe0004 	sw	s8,4(sp)
a0803018:	03a0f021 	move	s8,sp
a080301c:	afc40008 	sw	a0,8(s8)
a0803020:	8fc20008 	lw	v0,8(s8)
a0803024:	ac400000 	sw	zero,0(v0)
a0803028:	03c0e821 	move	sp,s8
a080302c:	8fbe0004 	lw	s8,4(sp)
a0803030:	27bd0008 	addiu	sp,sp,8
a0803034:	03e00008 	jr	ra
a0803038:	00000000 	nop

a080303c <spin_lock_acquire>:
a080303c:	27bdfff8 	addiu	sp,sp,-8
a0803040:	afbe0004 	sw	s8,4(sp)
a0803044:	03a0f021 	move	s8,sp
a0803048:	afc40008 	sw	a0,8(s8)
a080304c:	8fc20008 	lw	v0,8(s8)
a0803050:	8c430000 	lw	v1,0(v0)
a0803054:	24020001 	li	v0,1
a0803058:	1062fffc 	beq	v1,v0,a080304c <spin_lock_acquire+0x10>
a080305c:	00000000 	nop
a0803060:	8fc30008 	lw	v1,8(s8)
a0803064:	24020001 	li	v0,1
a0803068:	ac620000 	sw	v0,0(v1)
a080306c:	03c0e821 	move	sp,s8
a0803070:	8fbe0004 	lw	s8,4(sp)
a0803074:	27bd0008 	addiu	sp,sp,8
a0803078:	03e00008 	jr	ra
a080307c:	00000000 	nop

a0803080 <spin_lock_release>:
a0803080:	27bdfff8 	addiu	sp,sp,-8
a0803084:	afbe0004 	sw	s8,4(sp)
a0803088:	03a0f021 	move	s8,sp
a080308c:	afc40008 	sw	a0,8(s8)
a0803090:	8fc20008 	lw	v0,8(s8)
a0803094:	ac400000 	sw	zero,0(v0)
a0803098:	03c0e821 	move	sp,s8
a080309c:	8fbe0004 	lw	s8,4(sp)
a08030a0:	27bd0008 	addiu	sp,sp,8
a08030a4:	03e00008 	jr	ra
a08030a8:	00000000 	nop

a08030ac <do_mutex_lock_init>:
a08030ac:	27bdffe8 	addiu	sp,sp,-24
a08030b0:	afbf0014 	sw	ra,20(sp)
a08030b4:	afbe0010 	sw	s8,16(sp)
a08030b8:	03a0f021 	move	s8,sp
a08030bc:	afc40018 	sw	a0,24(s8)
a08030c0:	8fc20018 	lw	v0,24(s8)
a08030c4:	ac400000 	sw	zero,0(v0)
a08030c8:	8fc20018 	lw	v0,24(s8)
a08030cc:	24420004 	addiu	v0,v0,4
a08030d0:	00402021 	move	a0,v0
a08030d4:	0c201190 	jal	a0804640 <queue_init>
a08030d8:	00000000 	nop
a08030dc:	03c0e821 	move	sp,s8
a08030e0:	8fbf0014 	lw	ra,20(sp)
a08030e4:	8fbe0010 	lw	s8,16(sp)
a08030e8:	27bd0018 	addiu	sp,sp,24
a08030ec:	03e00008 	jr	ra
a08030f0:	00000000 	nop

a08030f4 <do_mutex_lock_acquire>:
a08030f4:	27bdffe8 	addiu	sp,sp,-24
a08030f8:	afbf0014 	sw	ra,20(sp)
a08030fc:	afbe0010 	sw	s8,16(sp)
a0803100:	03a0f021 	move	s8,sp
a0803104:	afc40018 	sw	a0,24(s8)
a0803108:	8fc20018 	lw	v0,24(s8)
a080310c:	8c430000 	lw	v1,0(v0)
a0803110:	24020001 	li	v0,1
a0803114:	14620008 	bne	v1,v0,a0803138 <do_mutex_lock_acquire+0x44>
a0803118:	00000000 	nop
a080311c:	8fc20018 	lw	v0,24(s8)
a0803120:	24420004 	addiu	v0,v0,4
a0803124:	00402021 	move	a0,v0
a0803128:	0c200f01 	jal	a0803c04 <do_block>
a080312c:	00000000 	nop
a0803130:	08200c58 	j	a0803160 <do_mutex_lock_acquire+0x6c>
a0803134:	00000000 	nop
a0803138:	8fc30018 	lw	v1,24(s8)
a080313c:	24020001 	li	v0,1
a0803140:	ac620000 	sw	v0,0(v1)
a0803144:	3c02a081 	lui	v0,0xa081
a0803148:	8c42aba8 	lw	v0,-21592(v0)
a080314c:	24420168 	addiu	v0,v0,360
a0803150:	00402021 	move	a0,v0
a0803154:	8fc50018 	lw	a1,24(s8)
a0803158:	0c2011b2 	jal	a08046c8 <queue_push>
a080315c:	00000000 	nop
a0803160:	03c0e821 	move	sp,s8
a0803164:	8fbf0014 	lw	ra,20(sp)
a0803168:	8fbe0010 	lw	s8,16(sp)
a080316c:	27bd0018 	addiu	sp,sp,24
a0803170:	03e00008 	jr	ra
a0803174:	00000000 	nop

a0803178 <do_mutex_lock_release>:
a0803178:	27bdffe8 	addiu	sp,sp,-24
a080317c:	afbf0014 	sw	ra,20(sp)
a0803180:	afbe0010 	sw	s8,16(sp)
a0803184:	03a0f021 	move	s8,sp
a0803188:	afc40018 	sw	a0,24(s8)
a080318c:	8fc20018 	lw	v0,24(s8)
a0803190:	24420004 	addiu	v0,v0,4
a0803194:	00402021 	move	a0,v0
a0803198:	0c20119f 	jal	a080467c <queue_is_empty>
a080319c:	00000000 	nop
a08031a0:	10400005 	beqz	v0,a08031b8 <do_mutex_lock_release+0x40>
a08031a4:	00000000 	nop
a08031a8:	8fc20018 	lw	v0,24(s8)
a08031ac:	ac400000 	sw	zero,0(v0)
a08031b0:	08200c73 	j	a08031cc <do_mutex_lock_release+0x54>
a08031b4:	00000000 	nop
a08031b8:	8fc20018 	lw	v0,24(s8)
a08031bc:	24420004 	addiu	v0,v0,4
a08031c0:	00402021 	move	a0,v0
a08031c4:	0c200f17 	jal	a0803c5c <do_unblock_one>
a08031c8:	00000000 	nop
a08031cc:	8fc20018 	lw	v0,24(s8)
a08031d0:	24420004 	addiu	v0,v0,4
a08031d4:	00402021 	move	a0,v0
a08031d8:	0c20119f 	jal	a080467c <queue_is_empty>
a08031dc:	00000000 	nop
a08031e0:	14400008 	bnez	v0,a0803204 <do_mutex_lock_release+0x8c>
a08031e4:	00000000 	nop
a08031e8:	3c02a081 	lui	v0,0xa081
a08031ec:	8c42aba8 	lw	v0,-21592(v0)
a08031f0:	24420168 	addiu	v0,v0,360
a08031f4:	00402021 	move	a0,v0
a08031f8:	8fc50018 	lw	a1,24(s8)
a08031fc:	0c201201 	jal	a0804804 <queue_remove>
a0803200:	00000000 	nop
a0803204:	03c0e821 	move	sp,s8
a0803208:	8fbf0014 	lw	ra,20(sp)
a080320c:	8fbe0010 	lw	s8,16(sp)
a0803210:	27bd0018 	addiu	sp,sp,24
a0803214:	03e00008 	jr	ra
a0803218:	00000000 	nop
a080321c:	00000000 	nop

a0803220 <handle_page_fault>:
a0803220:	27bdffe0 	addiu	sp,sp,-32
a0803224:	afbf001c 	sw	ra,28(sp)
a0803228:	afbe0018 	sw	s8,24(sp)
a080322c:	03a0f021 	move	s8,sp
a0803230:	afc40020 	sw	a0,32(s8)
a0803234:	afc00014 	sw	zero,20(s8)
a0803238:	08200c9d 	j	a0803274 <handle_page_fault+0x54>
a080323c:	00000000 	nop
a0803240:	8fc20014 	lw	v0,20(s8)
a0803244:	3c04a083 	lui	a0,0xa083
a0803248:	00021040 	sll	v0,v0,0x1
a080324c:	24420001 	addiu	v0,v0,1
a0803250:	000218c0 	sll	v1,v0,0x3
a0803254:	2482d910 	addiu	v0,a0,-9968
a0803258:	00621021 	addu	v0,v1,v0
a080325c:	80420004 	lb	v0,4(v0)
a0803260:	10400008 	beqz	v0,a0803284 <handle_page_fault+0x64>
a0803264:	00000000 	nop
a0803268:	8fc20014 	lw	v0,20(s8)
a080326c:	24420001 	addiu	v0,v0,1
a0803270:	afc20014 	sw	v0,20(s8)
a0803274:	8fc20014 	lw	v0,20(s8)
a0803278:	28420400 	slti	v0,v0,1024
a080327c:	1440fff0 	bnez	v0,a0803240 <handle_page_fault+0x20>
a0803280:	00000000 	nop
a0803284:	8fc30014 	lw	v1,20(s8)
a0803288:	24020400 	li	v0,1024
a080328c:	14620007 	bne	v1,v0,a08032ac <handle_page_fault+0x8c>
a0803290:	00000000 	nop
a0803294:	3c02a081 	lui	v0,0xa081
a0803298:	244499e0 	addiu	a0,v0,-26144
a080329c:	0c201959 	jal	a0806564 <printk>
a08032a0:	00000000 	nop
a08032a4:	08200ca9 	j	a08032a4 <handle_page_fault+0x84>
a08032a8:	00000000 	nop
a08032ac:	afc00010 	sw	zero,16(s8)
a08032b0:	08200cb8 	j	a08032e0 <handle_page_fault+0xc0>
a08032b4:	00000000 	nop
a08032b8:	8fc30010 	lw	v1,16(s8)
a08032bc:	3c02a083 	lui	v0,0xa083
a08032c0:	24421910 	addiu	v0,v0,6416
a08032c4:	00621021 	addu	v0,v1,v0
a08032c8:	80420000 	lb	v0,0(v0)
a08032cc:	10400008 	beqz	v0,a08032f0 <handle_page_fault+0xd0>
a08032d0:	00000000 	nop
a08032d4:	8fc20010 	lw	v0,16(s8)
a08032d8:	24420001 	addiu	v0,v0,1
a08032dc:	afc20010 	sw	v0,16(s8)
a08032e0:	8fc20010 	lw	v0,16(s8)
a08032e4:	28420400 	slti	v0,v0,1024
a08032e8:	1440fff3 	bnez	v0,a08032b8 <handle_page_fault+0x98>
a08032ec:	00000000 	nop
a08032f0:	8fc30010 	lw	v1,16(s8)
a08032f4:	24020400 	li	v0,1024
a08032f8:	14620007 	bne	v1,v0,a0803318 <handle_page_fault+0xf8>
a08032fc:	00000000 	nop
a0803300:	3c02a081 	lui	v0,0xa081
a0803304:	24449a04 	addiu	a0,v0,-26108
a0803308:	0c201959 	jal	a0806564 <printk>
a080330c:	00000000 	nop
a0803310:	08200cc4 	j	a0803310 <handle_page_fault+0xf0>
a0803314:	00000000 	nop
a0803318:	8fc20014 	lw	v0,20(s8)
a080331c:	3c03a083 	lui	v1,0xa083
a0803320:	00022100 	sll	a0,v0,0x4
a0803324:	2462d910 	addiu	v0,v1,-9968
a0803328:	00821821 	addu	v1,a0,v0
a080332c:	8fc20020 	lw	v0,32(s8)
a0803330:	ac620000 	sw	v0,0(v1)
a0803334:	8fc40014 	lw	a0,20(s8)
a0803338:	8fc50010 	lw	a1,16(s8)
a080333c:	3c02a083 	lui	v0,0xa083
a0803340:	2443d910 	addiu	v1,v0,-9968
a0803344:	00041100 	sll	v0,a0,0x4
a0803348:	00621021 	addu	v0,v1,v0
a080334c:	ac450004 	sw	a1,4(v0)
a0803350:	8fc30014 	lw	v1,20(s8)
a0803354:	3c02a081 	lui	v0,0xa081
a0803358:	8c42aba8 	lw	v0,-21592(v0)
a080335c:	8c450148 	lw	a1,328(v0)
a0803360:	3c04a083 	lui	a0,0xa083
a0803364:	00031040 	sll	v0,v1,0x1
a0803368:	24420001 	addiu	v0,v0,1
a080336c:	000218c0 	sll	v1,v0,0x3
a0803370:	2482d910 	addiu	v0,a0,-9968
a0803374:	00621021 	addu	v0,v1,v0
a0803378:	ac450000 	sw	a1,0(v0)
a080337c:	8fc20014 	lw	v0,20(s8)
a0803380:	3c04a083 	lui	a0,0xa083
a0803384:	00021040 	sll	v0,v0,0x1
a0803388:	24420001 	addiu	v0,v0,1
a080338c:	000218c0 	sll	v1,v0,0x3
a0803390:	2482d910 	addiu	v0,a0,-9968
a0803394:	00621821 	addu	v1,v1,v0
a0803398:	24020001 	li	v0,1
a080339c:	a0620004 	sb	v0,4(v1)
a08033a0:	8fc20014 	lw	v0,20(s8)
a08033a4:	24430001 	addiu	v1,v0,1
a08033a8:	8fc20020 	lw	v0,32(s8)
a08033ac:	24440001 	addiu	a0,v0,1
a08033b0:	3c02a083 	lui	v0,0xa083
a08033b4:	00031900 	sll	v1,v1,0x4
a08033b8:	2442d910 	addiu	v0,v0,-9968
a08033bc:	00621021 	addu	v0,v1,v0
a08033c0:	ac440000 	sw	a0,0(v0)
a08033c4:	8fc20014 	lw	v0,20(s8)
a08033c8:	24450001 	addiu	a1,v0,1
a08033cc:	8fc20010 	lw	v0,16(s8)
a08033d0:	24420001 	addiu	v0,v0,1
a08033d4:	00402021 	move	a0,v0
a08033d8:	3c02a083 	lui	v0,0xa083
a08033dc:	2443d910 	addiu	v1,v0,-9968
a08033e0:	00051100 	sll	v0,a1,0x4
a08033e4:	00621021 	addu	v0,v1,v0
a08033e8:	ac440004 	sw	a0,4(v0)
a08033ec:	8fc20014 	lw	v0,20(s8)
a08033f0:	24430001 	addiu	v1,v0,1
a08033f4:	3c02a081 	lui	v0,0xa081
a08033f8:	8c42aba8 	lw	v0,-21592(v0)
a08033fc:	8c450148 	lw	a1,328(v0)
a0803400:	3c04a083 	lui	a0,0xa083
a0803404:	00031040 	sll	v0,v1,0x1
a0803408:	24420001 	addiu	v0,v0,1
a080340c:	000218c0 	sll	v1,v0,0x3
a0803410:	2482d910 	addiu	v0,a0,-9968
a0803414:	00621021 	addu	v0,v1,v0
a0803418:	ac450000 	sw	a1,0(v0)
a080341c:	8fc20014 	lw	v0,20(s8)
a0803420:	24420001 	addiu	v0,v0,1
a0803424:	3c04a083 	lui	a0,0xa083
a0803428:	00021040 	sll	v0,v0,0x1
a080342c:	24420001 	addiu	v0,v0,1
a0803430:	000218c0 	sll	v1,v0,0x3
a0803434:	2482d910 	addiu	v0,a0,-9968
a0803438:	00621821 	addu	v1,v1,v0
a080343c:	24020001 	li	v0,1
a0803440:	a0620004 	sb	v0,4(v1)
a0803444:	8fc30010 	lw	v1,16(s8)
a0803448:	3c02a083 	lui	v0,0xa083
a080344c:	24421910 	addiu	v0,v0,6416
a0803450:	00621821 	addu	v1,v1,v0
a0803454:	24020001 	li	v0,1
a0803458:	a0620000 	sb	v0,0(v1)
a080345c:	8fc20010 	lw	v0,16(s8)
a0803460:	24430001 	addiu	v1,v0,1
a0803464:	3c02a083 	lui	v0,0xa083
a0803468:	24421910 	addiu	v0,v0,6416
a080346c:	00621821 	addu	v1,v1,v0
a0803470:	24020001 	li	v0,1
a0803474:	a0620000 	sb	v0,0(v1)
a0803478:	8fc20014 	lw	v0,20(s8)
a080347c:	03c0e821 	move	sp,s8
a0803480:	8fbf001c 	lw	ra,28(sp)
a0803484:	8fbe0018 	lw	s8,24(sp)
a0803488:	27bd0020 	addiu	sp,sp,32
a080348c:	03e00008 	jr	ra
a0803490:	00000000 	nop

a0803494 <tlb_helper>:
a0803494:	27bdffc8 	addiu	sp,sp,-56
a0803498:	afbf0034 	sw	ra,52(sp)
a080349c:	afbe0030 	sw	s8,48(sp)
a08034a0:	03a0f021 	move	s8,sp
a08034a4:	3c02a081 	lui	v0,0xa081
a08034a8:	8c42aba8 	lw	v0,-21592(v0)
a08034ac:	8c430128 	lw	v1,296(v0)
a08034b0:	2402e000 	li	v0,-8192
a08034b4:	00621024 	and	v0,v1,v0
a08034b8:	00021302 	srl	v0,v0,0xc
a08034bc:	afc20014 	sw	v0,20(s8)
a08034c0:	3c02a081 	lui	v0,0xa081
a08034c4:	8c42aba8 	lw	v0,-21592(v0)
a08034c8:	8c420148 	lw	v0,328(v0)
a08034cc:	afc20010 	sw	v0,16(s8)
a08034d0:	afc0001c 	sw	zero,28(s8)
a08034d4:	08200d5a 	j	a0803568 <tlb_helper+0xd4>
a08034d8:	00000000 	nop
a08034dc:	8fc2001c 	lw	v0,28(s8)
a08034e0:	3c03a083 	lui	v1,0xa083
a08034e4:	00022100 	sll	a0,v0,0x4
a08034e8:	2462d910 	addiu	v0,v1,-9968
a08034ec:	00821021 	addu	v0,a0,v0
a08034f0:	8c430000 	lw	v1,0(v0)
a08034f4:	8fc20014 	lw	v0,20(s8)
a08034f8:	14620018 	bne	v1,v0,a080355c <tlb_helper+0xc8>
a08034fc:	00000000 	nop
a0803500:	8fc2001c 	lw	v0,28(s8)
a0803504:	3c04a083 	lui	a0,0xa083
a0803508:	00021040 	sll	v0,v0,0x1
a080350c:	24420001 	addiu	v0,v0,1
a0803510:	000218c0 	sll	v1,v0,0x3
a0803514:	2482d910 	addiu	v0,a0,-9968
a0803518:	00621021 	addu	v0,v1,v0
a080351c:	8c420000 	lw	v0,0(v0)
a0803520:	00401821 	move	v1,v0
a0803524:	8fc20010 	lw	v0,16(s8)
a0803528:	1462000c 	bne	v1,v0,a080355c <tlb_helper+0xc8>
a080352c:	00000000 	nop
a0803530:	8fc2001c 	lw	v0,28(s8)
a0803534:	3c04a083 	lui	a0,0xa083
a0803538:	00021040 	sll	v0,v0,0x1
a080353c:	24420001 	addiu	v0,v0,1
a0803540:	000218c0 	sll	v1,v0,0x3
a0803544:	2482d910 	addiu	v0,a0,-9968
a0803548:	00621021 	addu	v0,v1,v0
a080354c:	80430004 	lb	v1,4(v0)
a0803550:	24020001 	li	v0,1
a0803554:	10620008 	beq	v1,v0,a0803578 <tlb_helper+0xe4>
a0803558:	00000000 	nop
a080355c:	8fc2001c 	lw	v0,28(s8)
a0803560:	24420001 	addiu	v0,v0,1
a0803564:	afc2001c 	sw	v0,28(s8)
a0803568:	8fc2001c 	lw	v0,28(s8)
a080356c:	28420400 	slti	v0,v0,1024
a0803570:	1440ffda 	bnez	v0,a08034dc <tlb_helper+0x48>
a0803574:	00000000 	nop
a0803578:	8fc3001c 	lw	v1,28(s8)
a080357c:	24020400 	li	v0,1024
a0803580:	14620005 	bne	v1,v0,a0803598 <tlb_helper+0x104>
a0803584:	00000000 	nop
a0803588:	8fc40014 	lw	a0,20(s8)
a080358c:	0c200c88 	jal	a0803220 <handle_page_fault>
a0803590:	00000000 	nop
a0803594:	afc2001c 	sw	v0,28(s8)
a0803598:	8fc2001c 	lw	v0,28(s8)
a080359c:	3c03a083 	lui	v1,0xa083
a08035a0:	00022100 	sll	a0,v0,0x4
a08035a4:	2462d910 	addiu	v0,v1,-9968
a08035a8:	00821021 	addu	v0,a0,v0
a08035ac:	8c420000 	lw	v0,0(v0)
a08035b0:	00021b00 	sll	v1,v0,0xc
a08035b4:	8fc20010 	lw	v0,16(s8)
a08035b8:	00621025 	or	v0,v1,v0
a08035bc:	00402021 	move	a0,v0
a08035c0:	0c20024c 	jal	a0800930 <search_TLB>
a08035c4:	00000000 	nop
a08035c8:	afc20020 	sw	v0,32(s8)
a08035cc:	8fc20020 	lw	v0,32(s8)
a08035d0:	000217c3 	sra	v0,v0,0x1f
a08035d4:	afc20018 	sw	v0,24(s8)
a08035d8:	8fc20018 	lw	v0,24(s8)
a08035dc:	1040001f 	beqz	v0,a080365c <tlb_helper+0x1c8>
a08035e0:	00000000 	nop
a08035e4:	3c02a081 	lui	v0,0xa081
a08035e8:	8c42bea0 	lw	v0,-16736(v0)
a08035ec:	24430001 	addiu	v1,v0,1
a08035f0:	3c02a081 	lui	v0,0xa081
a08035f4:	ac43bea0 	sw	v1,-16736(v0)
a08035f8:	3c02a081 	lui	v0,0xa081
a08035fc:	8c44bea0 	lw	a0,-16736(v0)
a0803600:	3c028421 	lui	v0,0x8421
a0803604:	34420843 	ori	v0,v0,0x843
a0803608:	00820018 	mult	a0,v0
a080360c:	00001010 	mfhi	v0
a0803610:	00441021 	addu	v0,v0,a0
a0803614:	00021903 	sra	v1,v0,0x4
a0803618:	000417c3 	sra	v0,a0,0x1f
a080361c:	00621023 	subu	v0,v1,v0
a0803620:	afc20028 	sw	v0,40(s8)
a0803624:	8fc20028 	lw	v0,40(s8)
a0803628:	00021140 	sll	v0,v0,0x5
a080362c:	8fc30028 	lw	v1,40(s8)
a0803630:	00431023 	subu	v0,v0,v1
a0803634:	00821023 	subu	v0,a0,v0
a0803638:	afc20028 	sw	v0,40(s8)
a080363c:	3c02a081 	lui	v0,0xa081
a0803640:	8fc30028 	lw	v1,40(s8)
a0803644:	ac43bea0 	sw	v1,-16736(v0)
a0803648:	3c02a081 	lui	v0,0xa081
a080364c:	8c42bea0 	lw	v0,-16736(v0)
a0803650:	00402021 	move	a0,v0
a0803654:	0c20025a 	jal	a0800968 <set_cp0_Index>
a0803658:	00000000 	nop
a080365c:	8fc4001c 	lw	a0,28(s8)
a0803660:	3c02a083 	lui	v0,0xa083
a0803664:	2443d910 	addiu	v1,v0,-9968
a0803668:	00041100 	sll	v0,a0,0x4
a080366c:	00621021 	addu	v0,v1,v0
a0803670:	8c420004 	lw	v0,4(v0)
a0803674:	00021180 	sll	v0,v0,0x6
a0803678:	34420016 	ori	v0,v0,0x16
a080367c:	00402021 	move	a0,v0
a0803680:	0c200254 	jal	a0800950 <set_EntryLo0>
a0803684:	00000000 	nop
a0803688:	8fc2001c 	lw	v0,28(s8)
a080368c:	24440001 	addiu	a0,v0,1
a0803690:	3c02a083 	lui	v0,0xa083
a0803694:	2443d910 	addiu	v1,v0,-9968
a0803698:	00041100 	sll	v0,a0,0x4
a080369c:	00621021 	addu	v0,v1,v0
a08036a0:	8c420004 	lw	v0,4(v0)
a08036a4:	00021180 	sll	v0,v0,0x6
a08036a8:	34420016 	ori	v0,v0,0x16
a08036ac:	00402021 	move	a0,v0
a08036b0:	0c200257 	jal	a080095c <set_EntryLo1>
a08036b4:	00000000 	nop
a08036b8:	0c20025d 	jal	a0800974 <set_PageMask>
a08036bc:	00000000 	nop
a08036c0:	03c0e821 	move	sp,s8
a08036c4:	8fbf0034 	lw	ra,52(sp)
a08036c8:	8fbe0030 	lw	s8,48(sp)
a08036cc:	27bd0038 	addiu	sp,sp,56
a08036d0:	03e00008 	jr	ra
a08036d4:	00000000 	nop
	...

a08036e0 <switch_current_running>:
a08036e0:	27bdffe8 	addiu	sp,sp,-24
a08036e4:	afbf0014 	sw	ra,20(sp)
a08036e8:	afbe0010 	sw	s8,16(sp)
a08036ec:	03a0f021 	move	s8,sp
a08036f0:	3c02a081 	lui	v0,0xa081
a08036f4:	2444abac 	addiu	a0,v0,-21588
a08036f8:	0c20119f 	jal	a080467c <queue_is_empty>
a08036fc:	00000000 	nop
a0803700:	1440000a 	bnez	v0,a080372c <switch_current_running+0x4c>
a0803704:	00000000 	nop
a0803708:	3c02a081 	lui	v0,0xa081
a080370c:	2444abac 	addiu	a0,v0,-21588
a0803710:	0c2011dc 	jal	a0804770 <queue_dequeue>
a0803714:	00000000 	nop
a0803718:	00401821 	move	v1,v0
a080371c:	3c02a081 	lui	v0,0xa081
a0803720:	ac43aba8 	sw	v1,-21592(v0)
a0803724:	08200e0d 	j	a0803834 <switch_current_running+0x154>
a0803728:	00000000 	nop
a080372c:	3c02a081 	lui	v0,0xa081
a0803730:	2444abbc 	addiu	a0,v0,-21572
a0803734:	0c20119f 	jal	a080467c <queue_is_empty>
a0803738:	00000000 	nop
a080373c:	1440000a 	bnez	v0,a0803768 <switch_current_running+0x88>
a0803740:	00000000 	nop
a0803744:	3c02a081 	lui	v0,0xa081
a0803748:	2444abbc 	addiu	a0,v0,-21572
a080374c:	0c2011dc 	jal	a0804770 <queue_dequeue>
a0803750:	00000000 	nop
a0803754:	00401821 	move	v1,v0
a0803758:	3c02a081 	lui	v0,0xa081
a080375c:	ac43aba8 	sw	v1,-21592(v0)
a0803760:	08200e0d 	j	a0803834 <switch_current_running+0x154>
a0803764:	00000000 	nop
a0803768:	3c02a081 	lui	v0,0xa081
a080376c:	2444abc4 	addiu	a0,v0,-21564
a0803770:	0c20119f 	jal	a080467c <queue_is_empty>
a0803774:	00000000 	nop
a0803778:	1440000a 	bnez	v0,a08037a4 <switch_current_running+0xc4>
a080377c:	00000000 	nop
a0803780:	3c02a081 	lui	v0,0xa081
a0803784:	2444abc4 	addiu	a0,v0,-21564
a0803788:	0c2011dc 	jal	a0804770 <queue_dequeue>
a080378c:	00000000 	nop
a0803790:	00401821 	move	v1,v0
a0803794:	3c02a081 	lui	v0,0xa081
a0803798:	ac43aba8 	sw	v1,-21592(v0)
a080379c:	08200e0d 	j	a0803834 <switch_current_running+0x154>
a08037a0:	00000000 	nop
a08037a4:	3c02a081 	lui	v0,0xa081
a08037a8:	2444ab98 	addiu	a0,v0,-21608
a08037ac:	0c20119f 	jal	a080467c <queue_is_empty>
a08037b0:	00000000 	nop
a08037b4:	1440000a 	bnez	v0,a08037e0 <switch_current_running+0x100>
a08037b8:	00000000 	nop
a08037bc:	3c02a081 	lui	v0,0xa081
a08037c0:	2444ab98 	addiu	a0,v0,-21608
a08037c4:	0c2011dc 	jal	a0804770 <queue_dequeue>
a08037c8:	00000000 	nop
a08037cc:	00401821 	move	v1,v0
a08037d0:	3c02a081 	lui	v0,0xa081
a08037d4:	ac43aba8 	sw	v1,-21592(v0)
a08037d8:	08200e0d 	j	a0803834 <switch_current_running+0x154>
a08037dc:	00000000 	nop
a08037e0:	3c02a081 	lui	v0,0xa081
a08037e4:	2444aba0 	addiu	a0,v0,-21600
a08037e8:	0c20119f 	jal	a080467c <queue_is_empty>
a08037ec:	00000000 	nop
a08037f0:	1440000a 	bnez	v0,a080381c <switch_current_running+0x13c>
a08037f4:	00000000 	nop
a08037f8:	3c02a081 	lui	v0,0xa081
a08037fc:	2444aba0 	addiu	a0,v0,-21600
a0803800:	0c2011dc 	jal	a0804770 <queue_dequeue>
a0803804:	00000000 	nop
a0803808:	00401821 	move	v1,v0
a080380c:	3c02a081 	lui	v0,0xa081
a0803810:	ac43aba8 	sw	v1,-21592(v0)
a0803814:	08200e0d 	j	a0803834 <switch_current_running+0x154>
a0803818:	00000000 	nop
a080381c:	3c02a081 	lui	v0,0xa081
a0803820:	24449a30 	addiu	a0,v0,-26064
a0803824:	0c201959 	jal	a0806564 <printk>
a0803828:	00000000 	nop
a080382c:	08200e0b 	j	a080382c <switch_current_running+0x14c>
a0803830:	00000000 	nop
a0803834:	3c02a081 	lui	v0,0xa081
a0803838:	8c42aba8 	lw	v0,-21592(v0)
a080383c:	8c430154 	lw	v1,340(v0)
a0803840:	24020003 	li	v0,3
a0803844:	1062ffaa 	beq	v1,v0,a08036f0 <switch_current_running+0x10>
a0803848:	00000000 	nop
a080384c:	3c02a081 	lui	v0,0xa081
a0803850:	8c43aba8 	lw	v1,-21592(v0)
a0803854:	24020001 	li	v0,1
a0803858:	ac620154 	sw	v0,340(v1)
a080385c:	3c02a081 	lui	v0,0xa081
a0803860:	8c42aba8 	lw	v0,-21592(v0)
a0803864:	8c430148 	lw	v1,328(v0)
a0803868:	3c02a081 	lui	v0,0xa081
a080386c:	ac43beb0 	sw	v1,-16720(v0)
a0803870:	03c0e821 	move	sp,s8
a0803874:	8fbf0014 	lw	ra,20(sp)
a0803878:	8fbe0010 	lw	s8,16(sp)
a080387c:	27bd0018 	addiu	sp,sp,24
a0803880:	03e00008 	jr	ra
a0803884:	00000000 	nop

a0803888 <push_to_ready_queue>:
a0803888:	27bdffe8 	addiu	sp,sp,-24
a080388c:	afbf0014 	sw	ra,20(sp)
a0803890:	afbe0010 	sw	s8,16(sp)
a0803894:	03a0f021 	move	s8,sp
a0803898:	afc40018 	sw	a0,24(s8)
a080389c:	8fc30018 	lw	v1,24(s8)
a08038a0:	24020002 	li	v0,2
a08038a4:	ac620154 	sw	v0,340(v1)
a08038a8:	8fc20018 	lw	v0,24(s8)
a08038ac:	8c420158 	lw	v0,344(v0)
a08038b0:	1440000b 	bnez	v0,a08038e0 <push_to_ready_queue+0x58>
a08038b4:	00000000 	nop
a08038b8:	3c02a081 	lui	v0,0xa081
a08038bc:	2444abbc 	addiu	a0,v0,-21572
a08038c0:	8fc50018 	lw	a1,24(s8)
a08038c4:	0c2011b2 	jal	a08046c8 <queue_push>
a08038c8:	00000000 	nop
a08038cc:	8fc30018 	lw	v1,24(s8)
a08038d0:	24020001 	li	v0,1
a08038d4:	ac620158 	sw	v0,344(v1)
a08038d8:	08200e6a 	j	a08039a8 <push_to_ready_queue+0x120>
a08038dc:	00000000 	nop
a08038e0:	8fc20018 	lw	v0,24(s8)
a08038e4:	8c430158 	lw	v1,344(v0)
a08038e8:	24020001 	li	v0,1
a08038ec:	1462000b 	bne	v1,v0,a080391c <push_to_ready_queue+0x94>
a08038f0:	00000000 	nop
a08038f4:	3c02a081 	lui	v0,0xa081
a08038f8:	2444abc4 	addiu	a0,v0,-21564
a08038fc:	8fc50018 	lw	a1,24(s8)
a0803900:	0c2011b2 	jal	a08046c8 <queue_push>
a0803904:	00000000 	nop
a0803908:	8fc30018 	lw	v1,24(s8)
a080390c:	24020002 	li	v0,2
a0803910:	ac620158 	sw	v0,344(v1)
a0803914:	08200e6a 	j	a08039a8 <push_to_ready_queue+0x120>
a0803918:	00000000 	nop
a080391c:	8fc20018 	lw	v0,24(s8)
a0803920:	8c430158 	lw	v1,344(v0)
a0803924:	24020002 	li	v0,2
a0803928:	1462000b 	bne	v1,v0,a0803958 <push_to_ready_queue+0xd0>
a080392c:	00000000 	nop
a0803930:	3c02a081 	lui	v0,0xa081
a0803934:	2444ab98 	addiu	a0,v0,-21608
a0803938:	8fc50018 	lw	a1,24(s8)
a080393c:	0c2011b2 	jal	a08046c8 <queue_push>
a0803940:	00000000 	nop
a0803944:	8fc30018 	lw	v1,24(s8)
a0803948:	24020003 	li	v0,3
a080394c:	ac620158 	sw	v0,344(v1)
a0803950:	08200e6a 	j	a08039a8 <push_to_ready_queue+0x120>
a0803954:	00000000 	nop
a0803958:	8fc20018 	lw	v0,24(s8)
a080395c:	8c430158 	lw	v1,344(v0)
a0803960:	24020003 	li	v0,3
a0803964:	1462000b 	bne	v1,v0,a0803994 <push_to_ready_queue+0x10c>
a0803968:	00000000 	nop
a080396c:	3c02a081 	lui	v0,0xa081
a0803970:	2444aba0 	addiu	a0,v0,-21600
a0803974:	8fc50018 	lw	a1,24(s8)
a0803978:	0c2011b2 	jal	a08046c8 <queue_push>
a080397c:	00000000 	nop
a0803980:	8fc30018 	lw	v1,24(s8)
a0803984:	24020004 	li	v0,4
a0803988:	ac620158 	sw	v0,344(v1)
a080398c:	08200e6a 	j	a08039a8 <push_to_ready_queue+0x120>
a0803990:	00000000 	nop
a0803994:	3c02a081 	lui	v0,0xa081
a0803998:	2444aba0 	addiu	a0,v0,-21600
a080399c:	8fc50018 	lw	a1,24(s8)
a08039a0:	0c2011b2 	jal	a08046c8 <queue_push>
a08039a4:	00000000 	nop
a08039a8:	03c0e821 	move	sp,s8
a08039ac:	8fbf0014 	lw	ra,20(sp)
a08039b0:	8fbe0010 	lw	s8,16(sp)
a08039b4:	27bd0018 	addiu	sp,sp,24
a08039b8:	03e00008 	jr	ra
a08039bc:	00000000 	nop

a08039c0 <check_sleeping>:
a08039c0:	27bdffd8 	addiu	sp,sp,-40
a08039c4:	afbf0024 	sw	ra,36(sp)
a08039c8:	afbe0020 	sw	s8,32(sp)
a08039cc:	03a0f021 	move	s8,sp
a08039d0:	3c02a081 	lui	v0,0xa081
a08039d4:	8c42abb4 	lw	v0,-21580(v0)
a08039d8:	afc20014 	sw	v0,20(s8)
a08039dc:	0c20125a 	jal	a0804968 <get_timer>
a08039e0:	00000000 	nop
a08039e4:	afc20010 	sw	v0,16(s8)
a08039e8:	3c02a081 	lui	v0,0xa081
a08039ec:	2444abb4 	addiu	a0,v0,-21580
a08039f0:	0c20119f 	jal	a080467c <queue_is_empty>
a08039f4:	00000000 	nop
a08039f8:	1440001f 	bnez	v0,a0803a78 <check_sleeping+0xb8>
a08039fc:	00000000 	nop
a0803a00:	8fc20014 	lw	v0,20(s8)
a0803a04:	afc20018 	sw	v0,24(s8)
a0803a08:	8fc20018 	lw	v0,24(s8)
a0803a0c:	8c43015c 	lw	v1,348(v0)
a0803a10:	8fc20010 	lw	v0,16(s8)
a0803a14:	0043102b 	sltu	v0,v0,v1
a0803a18:	14400011 	bnez	v0,a0803a60 <check_sleeping+0xa0>
a0803a1c:	00000000 	nop
a0803a20:	3c02a081 	lui	v0,0xa081
a0803a24:	2444abb4 	addiu	a0,v0,-21580
a0803a28:	8fc50018 	lw	a1,24(s8)
a0803a2c:	0c201201 	jal	a0804804 <queue_remove>
a0803a30:	00000000 	nop
a0803a34:	afc20014 	sw	v0,20(s8)
a0803a38:	8fc20018 	lw	v0,24(s8)
a0803a3c:	8c430154 	lw	v1,340(v0)
a0803a40:	24020003 	li	v0,3
a0803a44:	10620009 	beq	v1,v0,a0803a6c <check_sleeping+0xac>
a0803a48:	00000000 	nop
a0803a4c:	8fc40018 	lw	a0,24(s8)
a0803a50:	0c200e22 	jal	a0803888 <push_to_ready_queue>
a0803a54:	00000000 	nop
a0803a58:	08200e9b 	j	a0803a6c <check_sleeping+0xac>
a0803a5c:	00000000 	nop
a0803a60:	8fc20018 	lw	v0,24(s8)
a0803a64:	8c420144 	lw	v0,324(v0)
a0803a68:	afc20014 	sw	v0,20(s8)
a0803a6c:	8fc20014 	lw	v0,20(s8)
a0803a70:	1440ffe3 	bnez	v0,a0803a00 <check_sleeping+0x40>
a0803a74:	00000000 	nop
a0803a78:	03c0e821 	move	sp,s8
a0803a7c:	8fbf0024 	lw	ra,36(sp)
a0803a80:	8fbe0020 	lw	s8,32(sp)
a0803a84:	27bd0028 	addiu	sp,sp,40
a0803a88:	03e00008 	jr	ra
a0803a8c:	00000000 	nop

a0803a90 <scheduler>:
a0803a90:	27bdffe8 	addiu	sp,sp,-24
a0803a94:	afbf0014 	sw	ra,20(sp)
a0803a98:	afbe0010 	sw	s8,16(sp)
a0803a9c:	03a0f021 	move	s8,sp
a0803aa0:	3c02a081 	lui	v0,0xa081
a0803aa4:	8c43aba8 	lw	v1,-21592(v0)
a0803aa8:	3c02a081 	lui	v0,0xa081
a0803aac:	8c42ab90 	lw	v0,-21616(v0)
a0803ab0:	ac620170 	sw	v0,368(v1)
a0803ab4:	3c02a081 	lui	v0,0xa081
a0803ab8:	8c43aba8 	lw	v1,-21592(v0)
a0803abc:	3c02a081 	lui	v0,0xa081
a0803ac0:	8c42ab94 	lw	v0,-21612(v0)
a0803ac4:	ac620174 	sw	v0,372(v1)
a0803ac8:	0c200e70 	jal	a08039c0 <check_sleeping>
a0803acc:	00000000 	nop
a0803ad0:	3c02a081 	lui	v0,0xa081
a0803ad4:	8c42aba8 	lw	v0,-21592(v0)
a0803ad8:	10400007 	beqz	v0,a0803af8 <scheduler+0x68>
a0803adc:	00000000 	nop
a0803ae0:	3c02a081 	lui	v0,0xa081
a0803ae4:	8c42aba8 	lw	v0,-21592(v0)
a0803ae8:	8c430154 	lw	v1,340(v0)
a0803aec:	24020001 	li	v0,1
a0803af0:	10620005 	beq	v1,v0,a0803b08 <scheduler+0x78>
a0803af4:	00000000 	nop
a0803af8:	0c200db8 	jal	a08036e0 <switch_current_running>
a0803afc:	00000000 	nop
a0803b00:	08200ec9 	j	a0803b24 <scheduler+0x94>
a0803b04:	00000000 	nop
a0803b08:	3c02a081 	lui	v0,0xa081
a0803b0c:	8c42aba8 	lw	v0,-21592(v0)
a0803b10:	00402021 	move	a0,v0
a0803b14:	0c200e22 	jal	a0803888 <push_to_ready_queue>
a0803b18:	00000000 	nop
a0803b1c:	0c200db8 	jal	a08036e0 <switch_current_running>
a0803b20:	00000000 	nop
a0803b24:	3c02a081 	lui	v0,0xa081
a0803b28:	8c42aba8 	lw	v0,-21592(v0)
a0803b2c:	8c430170 	lw	v1,368(v0)
a0803b30:	3c02a081 	lui	v0,0xa081
a0803b34:	ac43ab90 	sw	v1,-21616(v0)
a0803b38:	3c02a081 	lui	v0,0xa081
a0803b3c:	8c42aba8 	lw	v0,-21592(v0)
a0803b40:	8c430174 	lw	v1,372(v0)
a0803b44:	3c02a081 	lui	v0,0xa081
a0803b48:	ac43ab94 	sw	v1,-21612(v0)
a0803b4c:	3c02a081 	lui	v0,0xa081
a0803b50:	8c42aba8 	lw	v0,-21592(v0)
a0803b54:	8c420148 	lw	v0,328(v0)
a0803b58:	00402021 	move	a0,v0
a0803b5c:	0c200251 	jal	a0800944 <set_EntryHi>
a0803b60:	00000000 	nop
a0803b64:	03c0e821 	move	sp,s8
a0803b68:	8fbf0014 	lw	ra,20(sp)
a0803b6c:	8fbe0010 	lw	s8,16(sp)
a0803b70:	27bd0018 	addiu	sp,sp,24
a0803b74:	03e00008 	jr	ra
a0803b78:	00000000 	nop

a0803b7c <do_sleep>:
a0803b7c:	27bdffe0 	addiu	sp,sp,-32
a0803b80:	afbf001c 	sw	ra,28(sp)
a0803b84:	afbe0018 	sw	s8,24(sp)
a0803b88:	afb00014 	sw	s0,20(sp)
a0803b8c:	03a0f021 	move	s8,sp
a0803b90:	afc40020 	sw	a0,32(s8)
a0803b94:	3c02a081 	lui	v0,0xa081
a0803b98:	8c43aba8 	lw	v1,-21592(v0)
a0803b9c:	3c02a081 	lui	v0,0xa081
a0803ba0:	2444abb4 	addiu	a0,v0,-21580
a0803ba4:	00602821 	move	a1,v1
a0803ba8:	0c2011b2 	jal	a08046c8 <queue_push>
a0803bac:	00000000 	nop
a0803bb0:	3c02a081 	lui	v0,0xa081
a0803bb4:	8c43aba8 	lw	v1,-21592(v0)
a0803bb8:	24020004 	li	v0,4
a0803bbc:	ac620154 	sw	v0,340(v1)
a0803bc0:	3c02a081 	lui	v0,0xa081
a0803bc4:	8c50aba8 	lw	s0,-21592(v0)
a0803bc8:	0c20125a 	jal	a0804968 <get_timer>
a0803bcc:	00000000 	nop
a0803bd0:	00401821 	move	v1,v0
a0803bd4:	8fc20020 	lw	v0,32(s8)
a0803bd8:	00621021 	addu	v0,v1,v0
a0803bdc:	ae02015c 	sw	v0,348(s0)
a0803be0:	0c2000c9 	jal	a0800324 <do_scheduler>
a0803be4:	00000000 	nop
a0803be8:	03c0e821 	move	sp,s8
a0803bec:	8fbf001c 	lw	ra,28(sp)
a0803bf0:	8fbe0018 	lw	s8,24(sp)
a0803bf4:	8fb00014 	lw	s0,20(sp)
a0803bf8:	27bd0020 	addiu	sp,sp,32
a0803bfc:	03e00008 	jr	ra
a0803c00:	00000000 	nop

a0803c04 <do_block>:
a0803c04:	27bdffe8 	addiu	sp,sp,-24
a0803c08:	afbf0014 	sw	ra,20(sp)
a0803c0c:	afbe0010 	sw	s8,16(sp)
a0803c10:	03a0f021 	move	s8,sp
a0803c14:	afc40018 	sw	a0,24(s8)
a0803c18:	3c02a081 	lui	v0,0xa081
a0803c1c:	8c42aba8 	lw	v0,-21592(v0)
a0803c20:	8fc40018 	lw	a0,24(s8)
a0803c24:	00402821 	move	a1,v0
a0803c28:	0c2011b2 	jal	a08046c8 <queue_push>
a0803c2c:	00000000 	nop
a0803c30:	3c02a081 	lui	v0,0xa081
a0803c34:	8c42aba8 	lw	v0,-21592(v0)
a0803c38:	ac400154 	sw	zero,340(v0)
a0803c3c:	0c2000c9 	jal	a0800324 <do_scheduler>
a0803c40:	00000000 	nop
a0803c44:	03c0e821 	move	sp,s8
a0803c48:	8fbf0014 	lw	ra,20(sp)
a0803c4c:	8fbe0010 	lw	s8,16(sp)
a0803c50:	27bd0018 	addiu	sp,sp,24
a0803c54:	03e00008 	jr	ra
a0803c58:	00000000 	nop

a0803c5c <do_unblock_one>:
a0803c5c:	27bdffe0 	addiu	sp,sp,-32
a0803c60:	afbf001c 	sw	ra,28(sp)
a0803c64:	afbe0018 	sw	s8,24(sp)
a0803c68:	03a0f021 	move	s8,sp
a0803c6c:	afc40020 	sw	a0,32(s8)
a0803c70:	8fc40020 	lw	a0,32(s8)
a0803c74:	0c20119f 	jal	a080467c <queue_is_empty>
a0803c78:	00000000 	nop
a0803c7c:	1440000d 	bnez	v0,a0803cb4 <do_unblock_one+0x58>
a0803c80:	00000000 	nop
a0803c84:	8fc40020 	lw	a0,32(s8)
a0803c88:	0c2011dc 	jal	a0804770 <queue_dequeue>
a0803c8c:	00000000 	nop
a0803c90:	afc20010 	sw	v0,16(s8)
a0803c94:	8fc20010 	lw	v0,16(s8)
a0803c98:	8c430154 	lw	v1,340(v0)
a0803c9c:	24020003 	li	v0,3
a0803ca0:	10620004 	beq	v1,v0,a0803cb4 <do_unblock_one+0x58>
a0803ca4:	00000000 	nop
a0803ca8:	8fc40010 	lw	a0,16(s8)
a0803cac:	0c200e22 	jal	a0803888 <push_to_ready_queue>
a0803cb0:	00000000 	nop
a0803cb4:	03c0e821 	move	sp,s8
a0803cb8:	8fbf001c 	lw	ra,28(sp)
a0803cbc:	8fbe0018 	lw	s8,24(sp)
a0803cc0:	27bd0020 	addiu	sp,sp,32
a0803cc4:	03e00008 	jr	ra
a0803cc8:	00000000 	nop

a0803ccc <do_unblock_all>:
a0803ccc:	27bdffe0 	addiu	sp,sp,-32
a0803cd0:	afbf001c 	sw	ra,28(sp)
a0803cd4:	afbe0018 	sw	s8,24(sp)
a0803cd8:	03a0f021 	move	s8,sp
a0803cdc:	afc40020 	sw	a0,32(s8)
a0803ce0:	08200f46 	j	a0803d18 <do_unblock_all+0x4c>
a0803ce4:	00000000 	nop
a0803ce8:	8fc40020 	lw	a0,32(s8)
a0803cec:	0c2011dc 	jal	a0804770 <queue_dequeue>
a0803cf0:	00000000 	nop
a0803cf4:	afc20010 	sw	v0,16(s8)
a0803cf8:	8fc20010 	lw	v0,16(s8)
a0803cfc:	8c430154 	lw	v1,340(v0)
a0803d00:	24020003 	li	v0,3
a0803d04:	10620004 	beq	v1,v0,a0803d18 <do_unblock_all+0x4c>
a0803d08:	00000000 	nop
a0803d0c:	8fc40010 	lw	a0,16(s8)
a0803d10:	0c200e22 	jal	a0803888 <push_to_ready_queue>
a0803d14:	00000000 	nop
a0803d18:	8fc40020 	lw	a0,32(s8)
a0803d1c:	0c20119f 	jal	a080467c <queue_is_empty>
a0803d20:	00000000 	nop
a0803d24:	1040fff0 	beqz	v0,a0803ce8 <do_unblock_all+0x1c>
a0803d28:	00000000 	nop
a0803d2c:	03c0e821 	move	sp,s8
a0803d30:	8fbf001c 	lw	ra,28(sp)
a0803d34:	8fbe0018 	lw	s8,24(sp)
a0803d38:	27bd0020 	addiu	sp,sp,32
a0803d3c:	03e00008 	jr	ra
a0803d40:	00000000 	nop

a0803d44 <do_ps>:
a0803d44:	27bdffe0 	addiu	sp,sp,-32
a0803d48:	afbf001c 	sw	ra,28(sp)
a0803d4c:	afbe0018 	sw	s8,24(sp)
a0803d50:	03a0f021 	move	s8,sp
a0803d54:	afc40020 	sw	a0,32(s8)
a0803d58:	8fc20020 	lw	v0,32(s8)
a0803d5c:	8c420000 	lw	v0,0(v0)
a0803d60:	24420001 	addiu	v0,v0,1
a0803d64:	24040001 	li	a0,1
a0803d68:	00402821 	move	a1,v0
a0803d6c:	0c20028c 	jal	a0800a30 <vt100_move_cursor>
a0803d70:	00000000 	nop
a0803d74:	3c02a081 	lui	v0,0xa081
a0803d78:	24449a44 	addiu	a0,v0,-26044
a0803d7c:	0c201959 	jal	a0806564 <printk>
a0803d80:	00000000 	nop
a0803d84:	afc00014 	sw	zero,20(s8)
a0803d88:	afc00010 	sw	zero,16(s8)
a0803d8c:	08200fc6 	j	a0803f18 <do_ps+0x1d4>
a0803d90:	00000000 	nop
a0803d94:	8fc40014 	lw	a0,20(s8)
a0803d98:	3c02a083 	lui	v0,0xa083
a0803d9c:	24451d10 	addiu	a1,v0,7440
a0803da0:	00801021 	move	v0,a0
a0803da4:	00021900 	sll	v1,v0,0x4
a0803da8:	00031080 	sll	v0,v1,0x2
a0803dac:	00431023 	subu	v0,v0,v1
a0803db0:	00441023 	subu	v0,v0,a0
a0803db4:	000210c0 	sll	v0,v0,0x3
a0803db8:	00a21021 	addu	v0,a1,v0
a0803dbc:	8c430154 	lw	v1,340(v0)
a0803dc0:	24020001 	li	v0,1
a0803dc4:	14620023 	bne	v1,v0,a0803e54 <do_ps+0x110>
a0803dc8:	00000000 	nop
a0803dcc:	8fc20020 	lw	v0,32(s8)
a0803dd0:	8c420000 	lw	v0,0(v0)
a0803dd4:	24430001 	addiu	v1,v0,1
a0803dd8:	8fc20020 	lw	v0,32(s8)
a0803ddc:	ac430000 	sw	v1,0(v0)
a0803de0:	8fc20020 	lw	v0,32(s8)
a0803de4:	8c420000 	lw	v0,0(v0)
a0803de8:	24420001 	addiu	v0,v0,1
a0803dec:	24040001 	li	a0,1
a0803df0:	00402821 	move	a1,v0
a0803df4:	0c20028c 	jal	a0800a30 <vt100_move_cursor>
a0803df8:	00000000 	nop
a0803dfc:	8fc40014 	lw	a0,20(s8)
a0803e00:	3c05a083 	lui	a1,0xa083
a0803e04:	00801021 	move	v0,a0
a0803e08:	00021900 	sll	v1,v0,0x4
a0803e0c:	00031080 	sll	v0,v1,0x2
a0803e10:	00431023 	subu	v0,v0,v1
a0803e14:	00441023 	subu	v0,v0,a0
a0803e18:	000218c0 	sll	v1,v0,0x3
a0803e1c:	24a21d10 	addiu	v0,a1,7440
a0803e20:	00621021 	addu	v0,v1,v0
a0803e24:	8c430148 	lw	v1,328(v0)
a0803e28:	3c02a081 	lui	v0,0xa081
a0803e2c:	24449a58 	addiu	a0,v0,-26024
a0803e30:	8fc50010 	lw	a1,16(s8)
a0803e34:	00603021 	move	a2,v1
a0803e38:	0c201959 	jal	a0806564 <printk>
a0803e3c:	00000000 	nop
a0803e40:	8fc20010 	lw	v0,16(s8)
a0803e44:	24420001 	addiu	v0,v0,1
a0803e48:	afc20010 	sw	v0,16(s8)
a0803e4c:	08200fc3 	j	a0803f0c <do_ps+0x1c8>
a0803e50:	00000000 	nop
a0803e54:	8fc40014 	lw	a0,20(s8)
a0803e58:	3c02a083 	lui	v0,0xa083
a0803e5c:	24451d10 	addiu	a1,v0,7440
a0803e60:	00801021 	move	v0,a0
a0803e64:	00021900 	sll	v1,v0,0x4
a0803e68:	00031080 	sll	v0,v1,0x2
a0803e6c:	00431023 	subu	v0,v0,v1
a0803e70:	00441023 	subu	v0,v0,a0
a0803e74:	000210c0 	sll	v0,v0,0x3
a0803e78:	00a21021 	addu	v0,a1,v0
a0803e7c:	8c430154 	lw	v1,340(v0)
a0803e80:	24020002 	li	v0,2
a0803e84:	14620021 	bne	v1,v0,a0803f0c <do_ps+0x1c8>
a0803e88:	00000000 	nop
a0803e8c:	8fc20020 	lw	v0,32(s8)
a0803e90:	8c420000 	lw	v0,0(v0)
a0803e94:	24430001 	addiu	v1,v0,1
a0803e98:	8fc20020 	lw	v0,32(s8)
a0803e9c:	ac430000 	sw	v1,0(v0)
a0803ea0:	8fc20020 	lw	v0,32(s8)
a0803ea4:	8c420000 	lw	v0,0(v0)
a0803ea8:	24420001 	addiu	v0,v0,1
a0803eac:	24040001 	li	a0,1
a0803eb0:	00402821 	move	a1,v0
a0803eb4:	0c20028c 	jal	a0800a30 <vt100_move_cursor>
a0803eb8:	00000000 	nop
a0803ebc:	8fc40014 	lw	a0,20(s8)
a0803ec0:	3c05a083 	lui	a1,0xa083
a0803ec4:	00801021 	move	v0,a0
a0803ec8:	00021900 	sll	v1,v0,0x4
a0803ecc:	00031080 	sll	v0,v1,0x2
a0803ed0:	00431023 	subu	v0,v0,v1
a0803ed4:	00441023 	subu	v0,v0,a0
a0803ed8:	000218c0 	sll	v1,v0,0x3
a0803edc:	24a21d10 	addiu	v0,a1,7440
a0803ee0:	00621021 	addu	v0,v1,v0
a0803ee4:	8c430148 	lw	v1,328(v0)
a0803ee8:	3c02a081 	lui	v0,0xa081
a0803eec:	24449a78 	addiu	a0,v0,-25992
a0803ef0:	8fc50010 	lw	a1,16(s8)
a0803ef4:	00603021 	move	a2,v1
a0803ef8:	0c201959 	jal	a0806564 <printk>
a0803efc:	00000000 	nop
a0803f00:	8fc20010 	lw	v0,16(s8)
a0803f04:	24420001 	addiu	v0,v0,1
a0803f08:	afc20010 	sw	v0,16(s8)
a0803f0c:	8fc20014 	lw	v0,20(s8)
a0803f10:	24420001 	addiu	v0,v0,1
a0803f14:	afc20014 	sw	v0,20(s8)
a0803f18:	8fc20014 	lw	v0,20(s8)
a0803f1c:	28420010 	slti	v0,v0,16
a0803f20:	1440ff9c 	bnez	v0,a0803d94 <do_ps+0x50>
a0803f24:	00000000 	nop
a0803f28:	03c0e821 	move	sp,s8
a0803f2c:	8fbf001c 	lw	ra,28(sp)
a0803f30:	8fbe0018 	lw	s8,24(sp)
a0803f34:	27bd0020 	addiu	sp,sp,32
a0803f38:	03e00008 	jr	ra
a0803f3c:	00000000 	nop

a0803f40 <do_getpid>:
a0803f40:	27bdfff8 	addiu	sp,sp,-8
a0803f44:	afbe0004 	sw	s8,4(sp)
a0803f48:	03a0f021 	move	s8,sp
a0803f4c:	3c02a081 	lui	v0,0xa081
a0803f50:	8c42aba8 	lw	v0,-21592(v0)
a0803f54:	8c420148 	lw	v0,328(v0)
a0803f58:	03c0e821 	move	sp,s8
a0803f5c:	8fbe0004 	lw	s8,4(sp)
a0803f60:	27bd0008 	addiu	sp,sp,8
a0803f64:	03e00008 	jr	ra
a0803f68:	00000000 	nop

a0803f6c <give_pcb>:
a0803f6c:	27bdffe0 	addiu	sp,sp,-32
a0803f70:	afbf001c 	sw	ra,28(sp)
a0803f74:	afbe0018 	sw	s8,24(sp)
a0803f78:	03a0f021 	move	s8,sp
a0803f7c:	afc40020 	sw	a0,32(s8)
a0803f80:	afc50024 	sw	a1,36(s8)
a0803f84:	afc60028 	sw	a2,40(s8)
a0803f88:	afc00010 	sw	zero,16(s8)
a0803f8c:	08200ff3 	j	a0803fcc <give_pcb+0x60>
a0803f90:	00000000 	nop
a0803f94:	8fc20010 	lw	v0,16(s8)
a0803f98:	8fc30020 	lw	v1,32(s8)
a0803f9c:	00021080 	sll	v0,v0,0x2
a0803fa0:	00621021 	addu	v0,v1,v0
a0803fa4:	ac400000 	sw	zero,0(v0)
a0803fa8:	8fc20010 	lw	v0,16(s8)
a0803fac:	8fc30020 	lw	v1,32(s8)
a0803fb0:	24420026 	addiu	v0,v0,38
a0803fb4:	00021080 	sll	v0,v0,0x2
a0803fb8:	00621021 	addu	v0,v1,v0
a0803fbc:	ac400004 	sw	zero,4(v0)
a0803fc0:	8fc20010 	lw	v0,16(s8)
a0803fc4:	24420001 	addiu	v0,v0,1
a0803fc8:	afc20010 	sw	v0,16(s8)
a0803fcc:	8fc20010 	lw	v0,16(s8)
a0803fd0:	2842001f 	slti	v0,v0,31
a0803fd4:	1440ffef 	bnez	v0,a0803f94 <give_pcb+0x28>
a0803fd8:	00000000 	nop
a0803fdc:	3c02a080 	lui	v0,0xa080
a0803fe0:	244205c0 	addiu	v0,v0,1472
a0803fe4:	00401821 	move	v1,v0
a0803fe8:	8fc20020 	lw	v0,32(s8)
a0803fec:	ac43007c 	sw	v1,124(v0)
a0803ff0:	8fc20020 	lw	v0,32(s8)
a0803ff4:	ac400118 	sw	zero,280(v0)
a0803ff8:	8fc30020 	lw	v1,32(s8)
a0803ffc:	3c027fff 	lui	v0,0x7fff
a0804000:	3442fff0 	ori	v0,v0,0xfff0
a0804004:	ac620110 	sw	v0,272(v1)
a0804008:	8fc20028 	lw	v0,40(s8)
a080400c:	00021300 	sll	v0,v0,0xc
a0804010:	00021823 	negu	v1,v0
a0804014:	3c02a0f0 	lui	v0,0xa0f0
a0804018:	00621821 	addu	v1,v1,v0
a080401c:	8fc20020 	lw	v0,32(s8)
a0804020:	ac430074 	sw	v1,116(v0)
a0804024:	8fc30020 	lw	v1,32(s8)
a0804028:	3c021000 	lui	v0,0x1000
a080402c:	34428000 	ori	v0,v0,0x8000
a0804030:	ac62011c 	sw	v0,284(v1)
a0804034:	8fc20020 	lw	v0,32(s8)
a0804038:	ac400120 	sw	zero,288(v0)
a080403c:	8fc20020 	lw	v0,32(s8)
a0804040:	ac400124 	sw	zero,292(v0)
a0804044:	8fc20020 	lw	v0,32(s8)
a0804048:	ac400128 	sw	zero,296(v0)
a080404c:	8fc20020 	lw	v0,32(s8)
a0804050:	ac40012c 	sw	zero,300(v0)
a0804054:	8fc20024 	lw	v0,36(s8)
a0804058:	8c430004 	lw	v1,4(v0)
a080405c:	8fc20020 	lw	v0,32(s8)
a0804060:	ac430130 	sw	v1,304(v0)
a0804064:	8fc20020 	lw	v0,32(s8)
a0804068:	ac400134 	sw	zero,308(v0)
a080406c:	8fc30020 	lw	v1,32(s8)
a0804070:	3c027fff 	lui	v0,0x7fff
a0804074:	3442fff0 	ori	v0,v0,0xfff0
a0804078:	ac62013c 	sw	v0,316(v1)
a080407c:	8fc30020 	lw	v1,32(s8)
a0804080:	3c021000 	lui	v0,0x1000
a0804084:	34428000 	ori	v0,v0,0x8000
a0804088:	ac620080 	sw	v0,128(v1)
a080408c:	8fc20020 	lw	v0,32(s8)
a0804090:	ac400084 	sw	zero,132(v0)
a0804094:	8fc20020 	lw	v0,32(s8)
a0804098:	ac400088 	sw	zero,136(v0)
a080409c:	8fc20020 	lw	v0,32(s8)
a08040a0:	ac40008c 	sw	zero,140(v0)
a08040a4:	8fc20020 	lw	v0,32(s8)
a08040a8:	ac400090 	sw	zero,144(v0)
a08040ac:	8fc20020 	lw	v0,32(s8)
a08040b0:	ac400094 	sw	zero,148(v0)
a08040b4:	8fc20020 	lw	v0,32(s8)
a08040b8:	ac400098 	sw	zero,152(v0)
a08040bc:	8fc20028 	lw	v0,40(s8)
a08040c0:	00021300 	sll	v0,v0,0xc
a08040c4:	00021823 	negu	v1,v0
a08040c8:	3c02a0f0 	lui	v0,0xa0f0
a08040cc:	00621821 	addu	v1,v1,v0
a08040d0:	8fc20020 	lw	v0,32(s8)
a08040d4:	ac430138 	sw	v1,312(v0)
a08040d8:	3c02a081 	lui	v0,0xa081
a08040dc:	8c43a470 	lw	v1,-23440(v0)
a08040e0:	8fc20020 	lw	v0,32(s8)
a08040e4:	ac430148 	sw	v1,328(v0)
a08040e8:	8fc20024 	lw	v0,36(s8)
a08040ec:	8c430008 	lw	v1,8(v0)
a08040f0:	8fc20020 	lw	v0,32(s8)
a08040f4:	ac430150 	sw	v1,336(v0)
a08040f8:	8fc20020 	lw	v0,32(s8)
a08040fc:	24420160 	addiu	v0,v0,352
a0804100:	00402021 	move	a0,v0
a0804104:	0c201190 	jal	a0804640 <queue_init>
a0804108:	00000000 	nop
a080410c:	8fc20020 	lw	v0,32(s8)
a0804110:	24420168 	addiu	v0,v0,360
a0804114:	00402021 	move	a0,v0
a0804118:	0c201190 	jal	a0804640 <queue_init>
a080411c:	00000000 	nop
a0804120:	8fc30020 	lw	v1,32(s8)
a0804124:	24020002 	li	v0,2
a0804128:	ac620154 	sw	v0,340(v1)
a080412c:	8fc20020 	lw	v0,32(s8)
a0804130:	ac400158 	sw	zero,344(v0)
a0804134:	3c02a081 	lui	v0,0xa081
a0804138:	2444abac 	addiu	a0,v0,-21588
a080413c:	8fc50020 	lw	a1,32(s8)
a0804140:	0c2011b2 	jal	a08046c8 <queue_push>
a0804144:	00000000 	nop
a0804148:	3c02a081 	lui	v0,0xa081
a080414c:	8c42a470 	lw	v0,-23440(v0)
a0804150:	24430001 	addiu	v1,v0,1
a0804154:	3c02a081 	lui	v0,0xa081
a0804158:	ac43a470 	sw	v1,-23440(v0)
a080415c:	03c0e821 	move	sp,s8
a0804160:	8fbf001c 	lw	ra,28(sp)
a0804164:	8fbe0018 	lw	s8,24(sp)
a0804168:	27bd0020 	addiu	sp,sp,32
a080416c:	03e00008 	jr	ra
a0804170:	00000000 	nop

a0804174 <do_spawn>:
a0804174:	27bdffe0 	addiu	sp,sp,-32
a0804178:	afbf001c 	sw	ra,28(sp)
a080417c:	afbe0018 	sw	s8,24(sp)
a0804180:	03a0f021 	move	s8,sp
a0804184:	afc40020 	sw	a0,32(s8)
a0804188:	afc00010 	sw	zero,16(s8)
a080418c:	08201076 	j	a08041d8 <do_spawn+0x64>
a0804190:	00000000 	nop
a0804194:	8fc40010 	lw	a0,16(s8)
a0804198:	3c02a083 	lui	v0,0xa083
a080419c:	24451d10 	addiu	a1,v0,7440
a08041a0:	00801021 	move	v0,a0
a08041a4:	00021900 	sll	v1,v0,0x4
a08041a8:	00031080 	sll	v0,v1,0x2
a08041ac:	00431023 	subu	v0,v0,v1
a08041b0:	00441023 	subu	v0,v0,a0
a08041b4:	000210c0 	sll	v0,v0,0x3
a08041b8:	00a21021 	addu	v0,a1,v0
a08041bc:	8c430154 	lw	v1,340(v0)
a08041c0:	24020003 	li	v0,3
a08041c4:	10620008 	beq	v1,v0,a08041e8 <do_spawn+0x74>
a08041c8:	00000000 	nop
a08041cc:	8fc20010 	lw	v0,16(s8)
a08041d0:	24420001 	addiu	v0,v0,1
a08041d4:	afc20010 	sw	v0,16(s8)
a08041d8:	8fc20010 	lw	v0,16(s8)
a08041dc:	28420010 	slti	v0,v0,16
a08041e0:	1440ffec 	bnez	v0,a0804194 <do_spawn+0x20>
a08041e4:	00000000 	nop
a08041e8:	8fc30010 	lw	v1,16(s8)
a08041ec:	24020010 	li	v0,16
a08041f0:	14620007 	bne	v1,v0,a0804210 <do_spawn+0x9c>
a08041f4:	00000000 	nop
a08041f8:	3c02a081 	lui	v0,0xa081
a08041fc:	24449a98 	addiu	a0,v0,-25960
a0804200:	0c201959 	jal	a0806564 <printk>
a0804204:	00000000 	nop
a0804208:	08201082 	j	a0804208 <do_spawn+0x94>
a080420c:	00000000 	nop
a0804210:	8fc40010 	lw	a0,16(s8)
a0804214:	00801021 	move	v0,a0
a0804218:	00021900 	sll	v1,v0,0x4
a080421c:	00031080 	sll	v0,v1,0x2
a0804220:	00431023 	subu	v0,v0,v1
a0804224:	00441023 	subu	v0,v0,a0
a0804228:	000210c0 	sll	v0,v0,0x3
a080422c:	00401821 	move	v1,v0
a0804230:	3c02a083 	lui	v0,0xa083
a0804234:	24421d10 	addiu	v0,v0,7440
a0804238:	00621021 	addu	v0,v1,v0
a080423c:	00402021 	move	a0,v0
a0804240:	8fc50020 	lw	a1,32(s8)
a0804244:	8fc60010 	lw	a2,16(s8)
a0804248:	0c200fdb 	jal	a0803f6c <give_pcb>
a080424c:	00000000 	nop
a0804250:	03c0e821 	move	sp,s8
a0804254:	8fbf001c 	lw	ra,28(sp)
a0804258:	8fbe0018 	lw	s8,24(sp)
a080425c:	27bd0020 	addiu	sp,sp,32
a0804260:	03e00008 	jr	ra
a0804264:	00000000 	nop

a0804268 <do_exit>:
a0804268:	27bdffe0 	addiu	sp,sp,-32
a080426c:	afbf001c 	sw	ra,28(sp)
a0804270:	afbe0018 	sw	s8,24(sp)
a0804274:	03a0f021 	move	s8,sp
a0804278:	3c02a081 	lui	v0,0xa081
a080427c:	8c43aba8 	lw	v1,-21592(v0)
a0804280:	24020003 	li	v0,3
a0804284:	ac620154 	sw	v0,340(v1)
a0804288:	3c02a081 	lui	v0,0xa081
a080428c:	8c42aba8 	lw	v0,-21592(v0)
a0804290:	24420160 	addiu	v0,v0,352
a0804294:	00402021 	move	a0,v0
a0804298:	0c200f33 	jal	a0803ccc <do_unblock_all>
a080429c:	00000000 	nop
a08042a0:	082010b8 	j	a08042e0 <do_exit+0x78>
a08042a4:	00000000 	nop
a08042a8:	3c02a081 	lui	v0,0xa081
a08042ac:	8c42aba8 	lw	v0,-21592(v0)
a08042b0:	24420168 	addiu	v0,v0,360
a08042b4:	00402021 	move	a0,v0
a08042b8:	0c2011dc 	jal	a0804770 <queue_dequeue>
a08042bc:	00000000 	nop
a08042c0:	afc20014 	sw	v0,20(s8)
a08042c4:	8fc20014 	lw	v0,20(s8)
a08042c8:	24420004 	addiu	v0,v0,4
a08042cc:	00402021 	move	a0,v0
a08042d0:	0c200f33 	jal	a0803ccc <do_unblock_all>
a08042d4:	00000000 	nop
a08042d8:	8fc20014 	lw	v0,20(s8)
a08042dc:	ac400000 	sw	zero,0(v0)
a08042e0:	3c02a081 	lui	v0,0xa081
a08042e4:	8c42aba8 	lw	v0,-21592(v0)
a08042e8:	24420168 	addiu	v0,v0,360
a08042ec:	00402021 	move	a0,v0
a08042f0:	0c20119f 	jal	a080467c <queue_is_empty>
a08042f4:	00000000 	nop
a08042f8:	1040ffeb 	beqz	v0,a08042a8 <do_exit+0x40>
a08042fc:	00000000 	nop
a0804300:	0c2000c9 	jal	a0800324 <do_scheduler>
a0804304:	00000000 	nop
a0804308:	03c0e821 	move	sp,s8
a080430c:	8fbf001c 	lw	ra,28(sp)
a0804310:	8fbe0018 	lw	s8,24(sp)
a0804314:	27bd0020 	addiu	sp,sp,32
a0804318:	03e00008 	jr	ra
a080431c:	00000000 	nop

a0804320 <do_wait>:
a0804320:	27bdffe0 	addiu	sp,sp,-32
a0804324:	afbf001c 	sw	ra,28(sp)
a0804328:	afbe0018 	sw	s8,24(sp)
a080432c:	03a0f021 	move	s8,sp
a0804330:	afc40020 	sw	a0,32(s8)
a0804334:	afc00010 	sw	zero,16(s8)
a0804338:	08201107 	j	a080441c <do_wait+0xfc>
a080433c:	00000000 	nop
a0804340:	8fc40010 	lw	a0,16(s8)
a0804344:	3c05a083 	lui	a1,0xa083
a0804348:	00801021 	move	v0,a0
a080434c:	00021900 	sll	v1,v0,0x4
a0804350:	00031080 	sll	v0,v1,0x2
a0804354:	00431023 	subu	v0,v0,v1
a0804358:	00441023 	subu	v0,v0,a0
a080435c:	000218c0 	sll	v1,v0,0x3
a0804360:	24a21d10 	addiu	v0,a1,7440
a0804364:	00621021 	addu	v0,v1,v0
a0804368:	8c430148 	lw	v1,328(v0)
a080436c:	8fc20020 	lw	v0,32(s8)
a0804370:	14620027 	bne	v1,v0,a0804410 <do_wait+0xf0>
a0804374:	00000000 	nop
a0804378:	8fc40010 	lw	a0,16(s8)
a080437c:	3c02a083 	lui	v0,0xa083
a0804380:	24451d10 	addiu	a1,v0,7440
a0804384:	00801021 	move	v0,a0
a0804388:	00021900 	sll	v1,v0,0x4
a080438c:	00031080 	sll	v0,v1,0x2
a0804390:	00431023 	subu	v0,v0,v1
a0804394:	00441023 	subu	v0,v0,a0
a0804398:	000210c0 	sll	v0,v0,0x3
a080439c:	00a21021 	addu	v0,a1,v0
a08043a0:	8c430154 	lw	v1,340(v0)
a08043a4:	24020003 	li	v0,3
a08043a8:	10620019 	beq	v1,v0,a0804410 <do_wait+0xf0>
a08043ac:	00000000 	nop
a08043b0:	3c02a081 	lui	v0,0xa081
a08043b4:	8c42aba8 	lw	v0,-21592(v0)
a08043b8:	ac400154 	sw	zero,340(v0)
a08043bc:	8fc40010 	lw	a0,16(s8)
a08043c0:	00801021 	move	v0,a0
a08043c4:	00021900 	sll	v1,v0,0x4
a08043c8:	00031080 	sll	v0,v1,0x2
a08043cc:	00431023 	subu	v0,v0,v1
a08043d0:	00441023 	subu	v0,v0,a0
a08043d4:	000210c0 	sll	v0,v0,0x3
a08043d8:	24430160 	addiu	v1,v0,352
a08043dc:	3c02a083 	lui	v0,0xa083
a08043e0:	24421d10 	addiu	v0,v0,7440
a08043e4:	00621821 	addu	v1,v1,v0
a08043e8:	3c02a081 	lui	v0,0xa081
a08043ec:	8c42aba8 	lw	v0,-21592(v0)
a08043f0:	00602021 	move	a0,v1
a08043f4:	00402821 	move	a1,v0
a08043f8:	0c2011b2 	jal	a08046c8 <queue_push>
a08043fc:	00000000 	nop
a0804400:	0c2000c9 	jal	a0800324 <do_scheduler>
a0804404:	00000000 	nop
a0804408:	0820110b 	j	a080442c <do_wait+0x10c>
a080440c:	00000000 	nop
a0804410:	8fc20010 	lw	v0,16(s8)
a0804414:	24420001 	addiu	v0,v0,1
a0804418:	afc20010 	sw	v0,16(s8)
a080441c:	8fc20010 	lw	v0,16(s8)
a0804420:	28420010 	slti	v0,v0,16
a0804424:	1440ffc6 	bnez	v0,a0804340 <do_wait+0x20>
a0804428:	00000000 	nop
a080442c:	03c0e821 	move	sp,s8
a0804430:	8fbf001c 	lw	ra,28(sp)
a0804434:	8fbe0018 	lw	s8,24(sp)
a0804438:	27bd0020 	addiu	sp,sp,32
a080443c:	03e00008 	jr	ra
a0804440:	00000000 	nop

a0804444 <do_kill>:
a0804444:	27bdffd8 	addiu	sp,sp,-40
a0804448:	afbf0024 	sw	ra,36(sp)
a080444c:	afbe0020 	sw	s8,32(sp)
a0804450:	03a0f021 	move	s8,sp
a0804454:	afc40028 	sw	a0,40(s8)
a0804458:	afc0001c 	sw	zero,28(s8)
a080445c:	08201138 	j	a08044e0 <do_kill+0x9c>
a0804460:	00000000 	nop
a0804464:	8fc4001c 	lw	a0,28(s8)
a0804468:	3c05a083 	lui	a1,0xa083
a080446c:	00801021 	move	v0,a0
a0804470:	00021900 	sll	v1,v0,0x4
a0804474:	00031080 	sll	v0,v1,0x2
a0804478:	00431023 	subu	v0,v0,v1
a080447c:	00441023 	subu	v0,v0,a0
a0804480:	000218c0 	sll	v1,v0,0x3
a0804484:	24a21d10 	addiu	v0,a1,7440
a0804488:	00621021 	addu	v0,v1,v0
a080448c:	8c430148 	lw	v1,328(v0)
a0804490:	8fc20028 	lw	v0,40(s8)
a0804494:	1462000f 	bne	v1,v0,a08044d4 <do_kill+0x90>
a0804498:	00000000 	nop
a080449c:	8fc4001c 	lw	a0,28(s8)
a08044a0:	3c02a083 	lui	v0,0xa083
a08044a4:	24451d10 	addiu	a1,v0,7440
a08044a8:	00801021 	move	v0,a0
a08044ac:	00021900 	sll	v1,v0,0x4
a08044b0:	00031080 	sll	v0,v1,0x2
a08044b4:	00431023 	subu	v0,v0,v1
a08044b8:	00441023 	subu	v0,v0,a0
a08044bc:	000210c0 	sll	v0,v0,0x3
a08044c0:	00a21021 	addu	v0,a1,v0
a08044c4:	8c430154 	lw	v1,340(v0)
a08044c8:	24020003 	li	v0,3
a08044cc:	14620008 	bne	v1,v0,a08044f0 <do_kill+0xac>
a08044d0:	00000000 	nop
a08044d4:	8fc2001c 	lw	v0,28(s8)
a08044d8:	24420001 	addiu	v0,v0,1
a08044dc:	afc2001c 	sw	v0,28(s8)
a08044e0:	8fc2001c 	lw	v0,28(s8)
a08044e4:	28420010 	slti	v0,v0,16
a08044e8:	1440ffde 	bnez	v0,a0804464 <do_kill+0x20>
a08044ec:	00000000 	nop
a08044f0:	3c02a081 	lui	v0,0xa081
a08044f4:	8c42aba8 	lw	v0,-21592(v0)
a08044f8:	8c430148 	lw	v1,328(v0)
a08044fc:	8fc20028 	lw	v0,40(s8)
a0804500:	10620049 	beq	v1,v0,a0804628 <do_kill+0x1e4>
a0804504:	00000000 	nop
a0804508:	8fc3001c 	lw	v1,28(s8)
a080450c:	24020010 	li	v0,16
a0804510:	10620045 	beq	v1,v0,a0804628 <do_kill+0x1e4>
a0804514:	00000000 	nop
a0804518:	8fc4001c 	lw	a0,28(s8)
a080451c:	00801021 	move	v0,a0
a0804520:	00021900 	sll	v1,v0,0x4
a0804524:	00031080 	sll	v0,v1,0x2
a0804528:	00431023 	subu	v0,v0,v1
a080452c:	00441023 	subu	v0,v0,a0
a0804530:	000210c0 	sll	v0,v0,0x3
a0804534:	24430160 	addiu	v1,v0,352
a0804538:	3c02a083 	lui	v0,0xa083
a080453c:	24421d10 	addiu	v0,v0,7440
a0804540:	00621021 	addu	v0,v1,v0
a0804544:	00402021 	move	a0,v0
a0804548:	0c200f33 	jal	a0803ccc <do_unblock_all>
a080454c:	00000000 	nop
a0804550:	0820116c 	j	a08045b0 <do_kill+0x16c>
a0804554:	00000000 	nop
a0804558:	8fc4001c 	lw	a0,28(s8)
a080455c:	00801021 	move	v0,a0
a0804560:	00021900 	sll	v1,v0,0x4
a0804564:	00031080 	sll	v0,v1,0x2
a0804568:	00431023 	subu	v0,v0,v1
a080456c:	00441023 	subu	v0,v0,a0
a0804570:	000210c0 	sll	v0,v0,0x3
a0804574:	24430168 	addiu	v1,v0,360
a0804578:	3c02a083 	lui	v0,0xa083
a080457c:	24421d10 	addiu	v0,v0,7440
a0804580:	00621021 	addu	v0,v1,v0
a0804584:	00402021 	move	a0,v0
a0804588:	0c2011dc 	jal	a0804770 <queue_dequeue>
a080458c:	00000000 	nop
a0804590:	afc20014 	sw	v0,20(s8)
a0804594:	8fc20014 	lw	v0,20(s8)
a0804598:	24420004 	addiu	v0,v0,4
a080459c:	00402021 	move	a0,v0
a08045a0:	0c200f33 	jal	a0803ccc <do_unblock_all>
a08045a4:	00000000 	nop
a08045a8:	8fc20014 	lw	v0,20(s8)
a08045ac:	ac400000 	sw	zero,0(v0)
a08045b0:	8fc4001c 	lw	a0,28(s8)
a08045b4:	00801021 	move	v0,a0
a08045b8:	00021900 	sll	v1,v0,0x4
a08045bc:	00031080 	sll	v0,v1,0x2
a08045c0:	00431023 	subu	v0,v0,v1
a08045c4:	00441023 	subu	v0,v0,a0
a08045c8:	000210c0 	sll	v0,v0,0x3
a08045cc:	24430168 	addiu	v1,v0,360
a08045d0:	3c02a083 	lui	v0,0xa083
a08045d4:	24421d10 	addiu	v0,v0,7440
a08045d8:	00621021 	addu	v0,v1,v0
a08045dc:	00402021 	move	a0,v0
a08045e0:	0c20119f 	jal	a080467c <queue_is_empty>
a08045e4:	00000000 	nop
a08045e8:	1040ffdb 	beqz	v0,a0804558 <do_kill+0x114>
a08045ec:	00000000 	nop
a08045f0:	8fc4001c 	lw	a0,28(s8)
a08045f4:	3c02a083 	lui	v0,0xa083
a08045f8:	24451d10 	addiu	a1,v0,7440
a08045fc:	00801021 	move	v0,a0
a0804600:	00021900 	sll	v1,v0,0x4
a0804604:	00031080 	sll	v0,v1,0x2
a0804608:	00431023 	subu	v0,v0,v1
a080460c:	00441023 	subu	v0,v0,a0
a0804610:	000210c0 	sll	v0,v0,0x3
a0804614:	00a21821 	addu	v1,a1,v0
a0804618:	24020003 	li	v0,3
a080461c:	ac620154 	sw	v0,340(v1)
a0804620:	0c2000c9 	jal	a0800324 <do_scheduler>
a0804624:	00000000 	nop
a0804628:	03c0e821 	move	sp,s8
a080462c:	8fbf0024 	lw	ra,36(sp)
a0804630:	8fbe0020 	lw	s8,32(sp)
a0804634:	27bd0028 	addiu	sp,sp,40
a0804638:	03e00008 	jr	ra
a080463c:	00000000 	nop

a0804640 <queue_init>:
a0804640:	27bdfff8 	addiu	sp,sp,-8
a0804644:	afbe0004 	sw	s8,4(sp)
a0804648:	03a0f021 	move	s8,sp
a080464c:	afc40008 	sw	a0,8(s8)
a0804650:	8fc20008 	lw	v0,8(s8)
a0804654:	ac400004 	sw	zero,4(v0)
a0804658:	8fc20008 	lw	v0,8(s8)
a080465c:	8c430004 	lw	v1,4(v0)
a0804660:	8fc20008 	lw	v0,8(s8)
a0804664:	ac430000 	sw	v1,0(v0)
a0804668:	03c0e821 	move	sp,s8
a080466c:	8fbe0004 	lw	s8,4(sp)
a0804670:	27bd0008 	addiu	sp,sp,8
a0804674:	03e00008 	jr	ra
a0804678:	00000000 	nop

a080467c <queue_is_empty>:
a080467c:	27bdfff0 	addiu	sp,sp,-16
a0804680:	afbe000c 	sw	s8,12(sp)
a0804684:	03a0f021 	move	s8,sp
a0804688:	afc40010 	sw	a0,16(s8)
a080468c:	8fc20010 	lw	v0,16(s8)
a0804690:	8c420000 	lw	v0,0(v0)
a0804694:	14400005 	bnez	v0,a08046ac <queue_is_empty+0x30>
a0804698:	00000000 	nop
a080469c:	24020001 	li	v0,1
a08046a0:	afc20000 	sw	v0,0(s8)
a08046a4:	082011ac 	j	a08046b0 <queue_is_empty+0x34>
a08046a8:	00000000 	nop
a08046ac:	afc00000 	sw	zero,0(s8)
a08046b0:	8fc20000 	lw	v0,0(s8)
a08046b4:	03c0e821 	move	sp,s8
a08046b8:	8fbe000c 	lw	s8,12(sp)
a08046bc:	27bd0010 	addiu	sp,sp,16
a08046c0:	03e00008 	jr	ra
a08046c4:	00000000 	nop

a08046c8 <queue_push>:
a08046c8:	27bdfff0 	addiu	sp,sp,-16
a08046cc:	afbe000c 	sw	s8,12(sp)
a08046d0:	03a0f021 	move	s8,sp
a08046d4:	afc40010 	sw	a0,16(s8)
a08046d8:	afc50014 	sw	a1,20(s8)
a08046dc:	8fc20014 	lw	v0,20(s8)
a08046e0:	afc20000 	sw	v0,0(s8)
a08046e4:	8fc20010 	lw	v0,16(s8)
a08046e8:	8c420000 	lw	v0,0(v0)
a08046ec:	1440000d 	bnez	v0,a0804724 <queue_push+0x5c>
a08046f0:	00000000 	nop
a08046f4:	8fc30010 	lw	v1,16(s8)
a08046f8:	8fc20014 	lw	v0,20(s8)
a08046fc:	ac620000 	sw	v0,0(v1)
a0804700:	8fc30010 	lw	v1,16(s8)
a0804704:	8fc20014 	lw	v0,20(s8)
a0804708:	ac620004 	sw	v0,4(v1)
a080470c:	8fc20000 	lw	v0,0(s8)
a0804710:	ac400144 	sw	zero,324(v0)
a0804714:	8fc20000 	lw	v0,0(s8)
a0804718:	ac400140 	sw	zero,320(v0)
a080471c:	082011d7 	j	a080475c <queue_push+0x94>
a0804720:	00000000 	nop
a0804724:	8fc20010 	lw	v0,16(s8)
a0804728:	8c420004 	lw	v0,4(v0)
a080472c:	00401821 	move	v1,v0
a0804730:	8fc20014 	lw	v0,20(s8)
a0804734:	ac620144 	sw	v0,324(v1)
a0804738:	8fc20000 	lw	v0,0(s8)
a080473c:	ac400144 	sw	zero,324(v0)
a0804740:	8fc20010 	lw	v0,16(s8)
a0804744:	8c430004 	lw	v1,4(v0)
a0804748:	8fc20000 	lw	v0,0(s8)
a080474c:	ac430140 	sw	v1,320(v0)
a0804750:	8fc30010 	lw	v1,16(s8)
a0804754:	8fc20014 	lw	v0,20(s8)
a0804758:	ac620004 	sw	v0,4(v1)
a080475c:	03c0e821 	move	sp,s8
a0804760:	8fbe000c 	lw	s8,12(sp)
a0804764:	27bd0010 	addiu	sp,sp,16
a0804768:	03e00008 	jr	ra
a080476c:	00000000 	nop

a0804770 <queue_dequeue>:
a0804770:	27bdfff0 	addiu	sp,sp,-16
a0804774:	afbe000c 	sw	s8,12(sp)
a0804778:	03a0f021 	move	s8,sp
a080477c:	afc40010 	sw	a0,16(s8)
a0804780:	8fc20010 	lw	v0,16(s8)
a0804784:	8c420000 	lw	v0,0(v0)
a0804788:	afc20000 	sw	v0,0(s8)
a080478c:	8fc20000 	lw	v0,0(s8)
a0804790:	8c420144 	lw	v0,324(v0)
a0804794:	14400009 	bnez	v0,a08047bc <queue_dequeue+0x4c>
a0804798:	00000000 	nop
a080479c:	8fc20010 	lw	v0,16(s8)
a08047a0:	ac400004 	sw	zero,4(v0)
a08047a4:	8fc20010 	lw	v0,16(s8)
a08047a8:	8c430004 	lw	v1,4(v0)
a08047ac:	8fc20010 	lw	v0,16(s8)
a08047b0:	ac430000 	sw	v1,0(v0)
a08047b4:	082011f7 	j	a08047dc <queue_dequeue+0x6c>
a08047b8:	00000000 	nop
a08047bc:	8fc20010 	lw	v0,16(s8)
a08047c0:	8c420000 	lw	v0,0(v0)
a08047c4:	8c430144 	lw	v1,324(v0)
a08047c8:	8fc20010 	lw	v0,16(s8)
a08047cc:	ac430000 	sw	v1,0(v0)
a08047d0:	8fc20010 	lw	v0,16(s8)
a08047d4:	8c420000 	lw	v0,0(v0)
a08047d8:	ac400140 	sw	zero,320(v0)
a08047dc:	8fc20000 	lw	v0,0(s8)
a08047e0:	ac400140 	sw	zero,320(v0)
a08047e4:	8fc20000 	lw	v0,0(s8)
a08047e8:	ac400144 	sw	zero,324(v0)
a08047ec:	8fc20000 	lw	v0,0(s8)
a08047f0:	03c0e821 	move	sp,s8
a08047f4:	8fbe000c 	lw	s8,12(sp)
a08047f8:	27bd0010 	addiu	sp,sp,16
a08047fc:	03e00008 	jr	ra
a0804800:	00000000 	nop

a0804804 <queue_remove>:
a0804804:	27bdfff0 	addiu	sp,sp,-16
a0804808:	afbe000c 	sw	s8,12(sp)
a080480c:	03a0f021 	move	s8,sp
a0804810:	afc40010 	sw	a0,16(s8)
a0804814:	afc50014 	sw	a1,20(s8)
a0804818:	8fc20014 	lw	v0,20(s8)
a080481c:	afc20004 	sw	v0,4(s8)
a0804820:	8fc20004 	lw	v0,4(s8)
a0804824:	8c420144 	lw	v0,324(v0)
a0804828:	afc20000 	sw	v0,0(s8)
a080482c:	8fc20010 	lw	v0,16(s8)
a0804830:	8c430000 	lw	v1,0(v0)
a0804834:	8fc20014 	lw	v0,20(s8)
a0804838:	1462000c 	bne	v1,v0,a080486c <queue_remove+0x68>
a080483c:	00000000 	nop
a0804840:	8fc20010 	lw	v0,16(s8)
a0804844:	8c430004 	lw	v1,4(v0)
a0804848:	8fc20014 	lw	v0,20(s8)
a080484c:	14620007 	bne	v1,v0,a080486c <queue_remove+0x68>
a0804850:	00000000 	nop
a0804854:	8fc20010 	lw	v0,16(s8)
a0804858:	ac400000 	sw	zero,0(v0)
a080485c:	8fc20010 	lw	v0,16(s8)
a0804860:	ac400004 	sw	zero,4(v0)
a0804864:	08201243 	j	a080490c <queue_remove+0x108>
a0804868:	00000000 	nop
a080486c:	8fc20010 	lw	v0,16(s8)
a0804870:	8c430000 	lw	v1,0(v0)
a0804874:	8fc20014 	lw	v0,20(s8)
a0804878:	1462000a 	bne	v1,v0,a08048a4 <queue_remove+0xa0>
a080487c:	00000000 	nop
a0804880:	8fc20004 	lw	v0,4(s8)
a0804884:	8c430144 	lw	v1,324(v0)
a0804888:	8fc20010 	lw	v0,16(s8)
a080488c:	ac430000 	sw	v1,0(v0)
a0804890:	8fc20010 	lw	v0,16(s8)
a0804894:	8c420000 	lw	v0,0(v0)
a0804898:	ac400140 	sw	zero,320(v0)
a080489c:	08201243 	j	a080490c <queue_remove+0x108>
a08048a0:	00000000 	nop
a08048a4:	8fc20010 	lw	v0,16(s8)
a08048a8:	8c430004 	lw	v1,4(v0)
a08048ac:	8fc20014 	lw	v0,20(s8)
a08048b0:	1462000a 	bne	v1,v0,a08048dc <queue_remove+0xd8>
a08048b4:	00000000 	nop
a08048b8:	8fc20004 	lw	v0,4(s8)
a08048bc:	8c430140 	lw	v1,320(v0)
a08048c0:	8fc20010 	lw	v0,16(s8)
a08048c4:	ac430004 	sw	v1,4(v0)
a08048c8:	8fc20010 	lw	v0,16(s8)
a08048cc:	8c420004 	lw	v0,4(v0)
a08048d0:	ac400144 	sw	zero,324(v0)
a08048d4:	08201243 	j	a080490c <queue_remove+0x108>
a08048d8:	00000000 	nop
a08048dc:	8fc20004 	lw	v0,4(s8)
a08048e0:	8c420140 	lw	v0,320(v0)
a08048e4:	00401821 	move	v1,v0
a08048e8:	8fc20004 	lw	v0,4(s8)
a08048ec:	8c420144 	lw	v0,324(v0)
a08048f0:	ac620144 	sw	v0,324(v1)
a08048f4:	8fc20004 	lw	v0,4(s8)
a08048f8:	8c420144 	lw	v0,324(v0)
a08048fc:	00401821 	move	v1,v0
a0804900:	8fc20004 	lw	v0,4(s8)
a0804904:	8c420140 	lw	v0,320(v0)
a0804908:	ac620140 	sw	v0,320(v1)
a080490c:	8fc20004 	lw	v0,4(s8)
a0804910:	ac400140 	sw	zero,320(v0)
a0804914:	8fc20004 	lw	v0,4(s8)
a0804918:	ac400144 	sw	zero,324(v0)
a080491c:	8fc20000 	lw	v0,0(s8)
a0804920:	03c0e821 	move	sp,s8
a0804924:	8fbe000c 	lw	s8,12(sp)
a0804928:	27bd0010 	addiu	sp,sp,16
a080492c:	03e00008 	jr	ra
a0804930:	00000000 	nop
	...

a0804940 <get_ticks>:
a0804940:	27bdfff8 	addiu	sp,sp,-8
a0804944:	afbe0004 	sw	s8,4(sp)
a0804948:	03a0f021 	move	s8,sp
a080494c:	3c02a081 	lui	v0,0xa081
a0804950:	8c42bec0 	lw	v0,-16704(v0)
a0804954:	03c0e821 	move	sp,s8
a0804958:	8fbe0004 	lw	s8,4(sp)
a080495c:	27bd0008 	addiu	sp,sp,8
a0804960:	03e00008 	jr	ra
a0804964:	00000000 	nop

a0804968 <get_timer>:
a0804968:	27bdfff8 	addiu	sp,sp,-8
a080496c:	afbe0004 	sw	s8,4(sp)
a0804970:	03a0f021 	move	s8,sp
a0804974:	3c02a081 	lui	v0,0xa081
a0804978:	8c43bec0 	lw	v1,-16704(v0)
a080497c:	3c026b5f 	lui	v0,0x6b5f
a0804980:	3442ca6b 	ori	v0,v0,0xca6b
a0804984:	00620019 	multu	v1,v0
a0804988:	00001010 	mfhi	v0
a080498c:	00021582 	srl	v0,v0,0x16
a0804990:	03c0e821 	move	sp,s8
a0804994:	8fbe0004 	lw	s8,4(sp)
a0804998:	27bd0008 	addiu	sp,sp,8
a080499c:	03e00008 	jr	ra
a08049a0:	00000000 	nop

a08049a4 <latency>:
a08049a4:	27bdffe0 	addiu	sp,sp,-32
a08049a8:	afbf001c 	sw	ra,28(sp)
a08049ac:	afbe0018 	sw	s8,24(sp)
a08049b0:	03a0f021 	move	s8,sp
a08049b4:	afc40020 	sw	a0,32(s8)
a08049b8:	0c20125a 	jal	a0804968 <get_timer>
a08049bc:	00000000 	nop
a08049c0:	afc20010 	sw	v0,16(s8)
a08049c4:	0c20125a 	jal	a0804968 <get_timer>
a08049c8:	00000000 	nop
a08049cc:	00401821 	move	v1,v0
a08049d0:	8fc20010 	lw	v0,16(s8)
a08049d4:	00621823 	subu	v1,v1,v0
a08049d8:	8fc20020 	lw	v0,32(s8)
a08049dc:	0062102b 	sltu	v0,v1,v0
a08049e0:	1440fff8 	bnez	v0,a08049c4 <latency+0x20>
a08049e4:	00000000 	nop
a08049e8:	03c0e821 	move	sp,s8
a08049ec:	8fbf001c 	lw	ra,28(sp)
a08049f0:	8fbe0018 	lw	s8,24(sp)
a08049f4:	27bd0020 	addiu	sp,sp,32
a08049f8:	03e00008 	jr	ra
a08049fc:	00000000 	nop

a0804a00 <system_call_helper>:
a0804a00:	27bdffe0 	addiu	sp,sp,-32
a0804a04:	afbf001c 	sw	ra,28(sp)
a0804a08:	afbe0018 	sw	s8,24(sp)
a0804a0c:	03a0f021 	move	s8,sp
a0804a10:	afc40020 	sw	a0,32(s8)
a0804a14:	afc50024 	sw	a1,36(s8)
a0804a18:	afc60028 	sw	a2,40(s8)
a0804a1c:	afc7002c 	sw	a3,44(s8)
a0804a20:	afc00010 	sw	zero,16(s8)
a0804a24:	8fc20020 	lw	v0,32(s8)
a0804a28:	04400005 	bltz	v0,a0804a40 <system_call_helper+0x40>
a0804a2c:	00000000 	nop
a0804a30:	8fc20020 	lw	v0,32(s8)
a0804a34:	28420040 	slti	v0,v0,64
a0804a38:	14400008 	bnez	v0,a0804a5c <system_call_helper+0x5c>
a0804a3c:	00000000 	nop
a0804a40:	3c02a081 	lui	v0,0xa081
a0804a44:	24449ab0 	addiu	a0,v0,-25936
a0804a48:	8fc50020 	lw	a1,32(s8)
a0804a4c:	0c201959 	jal	a0806564 <printk>
a0804a50:	00000000 	nop
a0804a54:	08201295 	j	a0804a54 <system_call_helper+0x54>
a0804a58:	00000000 	nop
a0804a5c:	8fc20020 	lw	v0,32(s8)
a0804a60:	3c03a083 	lui	v1,0xa083
a0804a64:	00022080 	sll	a0,v0,0x2
a0804a68:	2462d790 	addiu	v0,v1,-10352
a0804a6c:	00821021 	addu	v0,a0,v0
a0804a70:	8c420000 	lw	v0,0(v0)
a0804a74:	8fc40024 	lw	a0,36(s8)
a0804a78:	8fc50028 	lw	a1,40(s8)
a0804a7c:	8fc6002c 	lw	a2,44(s8)
a0804a80:	0040f809 	jalr	v0
a0804a84:	00000000 	nop
a0804a88:	afc20010 	sw	v0,16(s8)
a0804a8c:	3c02a081 	lui	v0,0xa081
a0804a90:	8c43aba8 	lw	v1,-21592(v0)
a0804a94:	8fc20010 	lw	v0,16(s8)
a0804a98:	ac6200a4 	sw	v0,164(v1)
a0804a9c:	03c0e821 	move	sp,s8
a0804aa0:	8fbf001c 	lw	ra,28(sp)
a0804aa4:	8fbe0018 	lw	s8,24(sp)
a0804aa8:	27bd0020 	addiu	sp,sp,32
a0804aac:	03e00008 	jr	ra
a0804ab0:	00000000 	nop

a0804ab4 <sys_sleep>:
a0804ab4:	27bdffe8 	addiu	sp,sp,-24
a0804ab8:	afbf0014 	sw	ra,20(sp)
a0804abc:	afbe0010 	sw	s8,16(sp)
a0804ac0:	03a0f021 	move	s8,sp
a0804ac4:	afc40018 	sw	a0,24(s8)
a0804ac8:	8fc20018 	lw	v0,24(s8)
a0804acc:	24040002 	li	a0,2
a0804ad0:	00402821 	move	a1,v0
a0804ad4:	00003021 	move	a2,zero
a0804ad8:	00003821 	move	a3,zero
a0804adc:	0c200260 	jal	a0800980 <invoke_syscall>
a0804ae0:	00000000 	nop
a0804ae4:	03c0e821 	move	sp,s8
a0804ae8:	8fbf0014 	lw	ra,20(sp)
a0804aec:	8fbe0010 	lw	s8,16(sp)
a0804af0:	27bd0018 	addiu	sp,sp,24
a0804af4:	03e00008 	jr	ra
a0804af8:	00000000 	nop

a0804afc <sys_block>:
a0804afc:	27bdffe8 	addiu	sp,sp,-24
a0804b00:	afbf0014 	sw	ra,20(sp)
a0804b04:	afbe0010 	sw	s8,16(sp)
a0804b08:	03a0f021 	move	s8,sp
a0804b0c:	afc40018 	sw	a0,24(s8)
a0804b10:	8fc20018 	lw	v0,24(s8)
a0804b14:	2404000a 	li	a0,10
a0804b18:	00402821 	move	a1,v0
a0804b1c:	00003021 	move	a2,zero
a0804b20:	00003821 	move	a3,zero
a0804b24:	0c200260 	jal	a0800980 <invoke_syscall>
a0804b28:	00000000 	nop
a0804b2c:	03c0e821 	move	sp,s8
a0804b30:	8fbf0014 	lw	ra,20(sp)
a0804b34:	8fbe0010 	lw	s8,16(sp)
a0804b38:	27bd0018 	addiu	sp,sp,24
a0804b3c:	03e00008 	jr	ra
a0804b40:	00000000 	nop

a0804b44 <sys_unblock_one>:
a0804b44:	27bdffe8 	addiu	sp,sp,-24
a0804b48:	afbf0014 	sw	ra,20(sp)
a0804b4c:	afbe0010 	sw	s8,16(sp)
a0804b50:	03a0f021 	move	s8,sp
a0804b54:	afc40018 	sw	a0,24(s8)
a0804b58:	8fc20018 	lw	v0,24(s8)
a0804b5c:	2404000b 	li	a0,11
a0804b60:	00402821 	move	a1,v0
a0804b64:	00003021 	move	a2,zero
a0804b68:	00003821 	move	a3,zero
a0804b6c:	0c200260 	jal	a0800980 <invoke_syscall>
a0804b70:	00000000 	nop
a0804b74:	03c0e821 	move	sp,s8
a0804b78:	8fbf0014 	lw	ra,20(sp)
a0804b7c:	8fbe0010 	lw	s8,16(sp)
a0804b80:	27bd0018 	addiu	sp,sp,24
a0804b84:	03e00008 	jr	ra
a0804b88:	00000000 	nop

a0804b8c <sys_unblock_all>:
a0804b8c:	27bdffe8 	addiu	sp,sp,-24
a0804b90:	afbf0014 	sw	ra,20(sp)
a0804b94:	afbe0010 	sw	s8,16(sp)
a0804b98:	03a0f021 	move	s8,sp
a0804b9c:	afc40018 	sw	a0,24(s8)
a0804ba0:	8fc20018 	lw	v0,24(s8)
a0804ba4:	2404000c 	li	a0,12
a0804ba8:	00402821 	move	a1,v0
a0804bac:	00003021 	move	a2,zero
a0804bb0:	00003821 	move	a3,zero
a0804bb4:	0c200260 	jal	a0800980 <invoke_syscall>
a0804bb8:	00000000 	nop
a0804bbc:	03c0e821 	move	sp,s8
a0804bc0:	8fbf0014 	lw	ra,20(sp)
a0804bc4:	8fbe0010 	lw	s8,16(sp)
a0804bc8:	27bd0018 	addiu	sp,sp,24
a0804bcc:	03e00008 	jr	ra
a0804bd0:	00000000 	nop

a0804bd4 <sys_write>:
a0804bd4:	27bdffe8 	addiu	sp,sp,-24
a0804bd8:	afbf0014 	sw	ra,20(sp)
a0804bdc:	afbe0010 	sw	s8,16(sp)
a0804be0:	03a0f021 	move	s8,sp
a0804be4:	afc40018 	sw	a0,24(s8)
a0804be8:	8fc20018 	lw	v0,24(s8)
a0804bec:	24040014 	li	a0,20
a0804bf0:	00402821 	move	a1,v0
a0804bf4:	00003021 	move	a2,zero
a0804bf8:	00003821 	move	a3,zero
a0804bfc:	0c200260 	jal	a0800980 <invoke_syscall>
a0804c00:	00000000 	nop
a0804c04:	03c0e821 	move	sp,s8
a0804c08:	8fbf0014 	lw	ra,20(sp)
a0804c0c:	8fbe0010 	lw	s8,16(sp)
a0804c10:	27bd0018 	addiu	sp,sp,24
a0804c14:	03e00008 	jr	ra
a0804c18:	00000000 	nop

a0804c1c <sys_reflush>:
a0804c1c:	27bdffe8 	addiu	sp,sp,-24
a0804c20:	afbf0014 	sw	ra,20(sp)
a0804c24:	afbe0010 	sw	s8,16(sp)
a0804c28:	03a0f021 	move	s8,sp
a0804c2c:	24040017 	li	a0,23
a0804c30:	00002821 	move	a1,zero
a0804c34:	00003021 	move	a2,zero
a0804c38:	00003821 	move	a3,zero
a0804c3c:	0c200260 	jal	a0800980 <invoke_syscall>
a0804c40:	00000000 	nop
a0804c44:	03c0e821 	move	sp,s8
a0804c48:	8fbf0014 	lw	ra,20(sp)
a0804c4c:	8fbe0010 	lw	s8,16(sp)
a0804c50:	27bd0018 	addiu	sp,sp,24
a0804c54:	03e00008 	jr	ra
a0804c58:	00000000 	nop

a0804c5c <sys_move_cursor>:
a0804c5c:	27bdffe8 	addiu	sp,sp,-24
a0804c60:	afbf0014 	sw	ra,20(sp)
a0804c64:	afbe0010 	sw	s8,16(sp)
a0804c68:	03a0f021 	move	s8,sp
a0804c6c:	afc40018 	sw	a0,24(s8)
a0804c70:	afc5001c 	sw	a1,28(s8)
a0804c74:	24040016 	li	a0,22
a0804c78:	8fc50018 	lw	a1,24(s8)
a0804c7c:	8fc6001c 	lw	a2,28(s8)
a0804c80:	00003821 	move	a3,zero
a0804c84:	0c200260 	jal	a0800980 <invoke_syscall>
a0804c88:	00000000 	nop
a0804c8c:	03c0e821 	move	sp,s8
a0804c90:	8fbf0014 	lw	ra,20(sp)
a0804c94:	8fbe0010 	lw	s8,16(sp)
a0804c98:	27bd0018 	addiu	sp,sp,24
a0804c9c:	03e00008 	jr	ra
a0804ca0:	00000000 	nop

a0804ca4 <mutex_lock_init>:
a0804ca4:	27bdffe8 	addiu	sp,sp,-24
a0804ca8:	afbf0014 	sw	ra,20(sp)
a0804cac:	afbe0010 	sw	s8,16(sp)
a0804cb0:	03a0f021 	move	s8,sp
a0804cb4:	afc40018 	sw	a0,24(s8)
a0804cb8:	8fc20018 	lw	v0,24(s8)
a0804cbc:	2404001e 	li	a0,30
a0804cc0:	00402821 	move	a1,v0
a0804cc4:	00003021 	move	a2,zero
a0804cc8:	00003821 	move	a3,zero
a0804ccc:	0c200260 	jal	a0800980 <invoke_syscall>
a0804cd0:	00000000 	nop
a0804cd4:	03c0e821 	move	sp,s8
a0804cd8:	8fbf0014 	lw	ra,20(sp)
a0804cdc:	8fbe0010 	lw	s8,16(sp)
a0804ce0:	27bd0018 	addiu	sp,sp,24
a0804ce4:	03e00008 	jr	ra
a0804ce8:	00000000 	nop

a0804cec <mutex_lock_acquire>:
a0804cec:	27bdffe8 	addiu	sp,sp,-24
a0804cf0:	afbf0014 	sw	ra,20(sp)
a0804cf4:	afbe0010 	sw	s8,16(sp)
a0804cf8:	03a0f021 	move	s8,sp
a0804cfc:	afc40018 	sw	a0,24(s8)
a0804d00:	8fc20018 	lw	v0,24(s8)
a0804d04:	2404001f 	li	a0,31
a0804d08:	00402821 	move	a1,v0
a0804d0c:	00003021 	move	a2,zero
a0804d10:	00003821 	move	a3,zero
a0804d14:	0c200260 	jal	a0800980 <invoke_syscall>
a0804d18:	00000000 	nop
a0804d1c:	03c0e821 	move	sp,s8
a0804d20:	8fbf0014 	lw	ra,20(sp)
a0804d24:	8fbe0010 	lw	s8,16(sp)
a0804d28:	27bd0018 	addiu	sp,sp,24
a0804d2c:	03e00008 	jr	ra
a0804d30:	00000000 	nop

a0804d34 <mutex_lock_release>:
a0804d34:	27bdffe8 	addiu	sp,sp,-24
a0804d38:	afbf0014 	sw	ra,20(sp)
a0804d3c:	afbe0010 	sw	s8,16(sp)
a0804d40:	03a0f021 	move	s8,sp
a0804d44:	afc40018 	sw	a0,24(s8)
a0804d48:	8fc20018 	lw	v0,24(s8)
a0804d4c:	24040020 	li	a0,32
a0804d50:	00402821 	move	a1,v0
a0804d54:	00003021 	move	a2,zero
a0804d58:	00003821 	move	a3,zero
a0804d5c:	0c200260 	jal	a0800980 <invoke_syscall>
a0804d60:	00000000 	nop
a0804d64:	03c0e821 	move	sp,s8
a0804d68:	8fbf0014 	lw	ra,20(sp)
a0804d6c:	8fbe0010 	lw	s8,16(sp)
a0804d70:	27bd0018 	addiu	sp,sp,24
a0804d74:	03e00008 	jr	ra
a0804d78:	00000000 	nop

a0804d7c <sys_ps>:
a0804d7c:	27bdffe8 	addiu	sp,sp,-24
a0804d80:	afbf0014 	sw	ra,20(sp)
a0804d84:	afbe0010 	sw	s8,16(sp)
a0804d88:	03a0f021 	move	s8,sp
a0804d8c:	afc40018 	sw	a0,24(s8)
a0804d90:	8fc20018 	lw	v0,24(s8)
a0804d94:	24040028 	li	a0,40
a0804d98:	00402821 	move	a1,v0
a0804d9c:	00003021 	move	a2,zero
a0804da0:	00003821 	move	a3,zero
a0804da4:	0c200260 	jal	a0800980 <invoke_syscall>
a0804da8:	00000000 	nop
a0804dac:	03c0e821 	move	sp,s8
a0804db0:	8fbf0014 	lw	ra,20(sp)
a0804db4:	8fbe0010 	lw	s8,16(sp)
a0804db8:	27bd0018 	addiu	sp,sp,24
a0804dbc:	03e00008 	jr	ra
a0804dc0:	00000000 	nop

a0804dc4 <sys_clear>:
a0804dc4:	27bdffe8 	addiu	sp,sp,-24
a0804dc8:	afbf0014 	sw	ra,20(sp)
a0804dcc:	afbe0010 	sw	s8,16(sp)
a0804dd0:	03a0f021 	move	s8,sp
a0804dd4:	afc40018 	sw	a0,24(s8)
a0804dd8:	afc5001c 	sw	a1,28(s8)
a0804ddc:	24040029 	li	a0,41
a0804de0:	8fc50018 	lw	a1,24(s8)
a0804de4:	8fc6001c 	lw	a2,28(s8)
a0804de8:	00003821 	move	a3,zero
a0804dec:	0c200260 	jal	a0800980 <invoke_syscall>
a0804df0:	00000000 	nop
a0804df4:	03c0e821 	move	sp,s8
a0804df8:	8fbf0014 	lw	ra,20(sp)
a0804dfc:	8fbe0010 	lw	s8,16(sp)
a0804e00:	27bd0018 	addiu	sp,sp,24
a0804e04:	03e00008 	jr	ra
a0804e08:	00000000 	nop

a0804e0c <sys_getpid>:
a0804e0c:	27bdffe0 	addiu	sp,sp,-32
a0804e10:	afbf001c 	sw	ra,28(sp)
a0804e14:	afbe0018 	sw	s8,24(sp)
a0804e18:	03a0f021 	move	s8,sp
a0804e1c:	2404002a 	li	a0,42
a0804e20:	00002821 	move	a1,zero
a0804e24:	00003021 	move	a2,zero
a0804e28:	00003821 	move	a3,zero
a0804e2c:	0c200260 	jal	a0800980 <invoke_syscall>
a0804e30:	00000000 	nop
a0804e34:	03c0e821 	move	sp,s8
a0804e38:	8fbf001c 	lw	ra,28(sp)
a0804e3c:	8fbe0018 	lw	s8,24(sp)
a0804e40:	27bd0020 	addiu	sp,sp,32
a0804e44:	03e00008 	jr	ra
a0804e48:	00000000 	nop

a0804e4c <sys_spawn>:
a0804e4c:	27bdffe8 	addiu	sp,sp,-24
a0804e50:	afbf0014 	sw	ra,20(sp)
a0804e54:	afbe0010 	sw	s8,16(sp)
a0804e58:	03a0f021 	move	s8,sp
a0804e5c:	afc40018 	sw	a0,24(s8)
a0804e60:	8fc20018 	lw	v0,24(s8)
a0804e64:	2404002e 	li	a0,46
a0804e68:	00402821 	move	a1,v0
a0804e6c:	00003021 	move	a2,zero
a0804e70:	00003821 	move	a3,zero
a0804e74:	0c200260 	jal	a0800980 <invoke_syscall>
a0804e78:	00000000 	nop
a0804e7c:	03c0e821 	move	sp,s8
a0804e80:	8fbf0014 	lw	ra,20(sp)
a0804e84:	8fbe0010 	lw	s8,16(sp)
a0804e88:	27bd0018 	addiu	sp,sp,24
a0804e8c:	03e00008 	jr	ra
a0804e90:	00000000 	nop

a0804e94 <sys_kill>:
a0804e94:	27bdffe8 	addiu	sp,sp,-24
a0804e98:	afbf0014 	sw	ra,20(sp)
a0804e9c:	afbe0010 	sw	s8,16(sp)
a0804ea0:	03a0f021 	move	s8,sp
a0804ea4:	afc40018 	sw	a0,24(s8)
a0804ea8:	2404002f 	li	a0,47
a0804eac:	8fc50018 	lw	a1,24(s8)
a0804eb0:	00003021 	move	a2,zero
a0804eb4:	00003821 	move	a3,zero
a0804eb8:	0c200260 	jal	a0800980 <invoke_syscall>
a0804ebc:	00000000 	nop
a0804ec0:	03c0e821 	move	sp,s8
a0804ec4:	8fbf0014 	lw	ra,20(sp)
a0804ec8:	8fbe0010 	lw	s8,16(sp)
a0804ecc:	27bd0018 	addiu	sp,sp,24
a0804ed0:	03e00008 	jr	ra
a0804ed4:	00000000 	nop

a0804ed8 <sys_exit>:
a0804ed8:	27bdffe8 	addiu	sp,sp,-24
a0804edc:	afbf0014 	sw	ra,20(sp)
a0804ee0:	afbe0010 	sw	s8,16(sp)
a0804ee4:	03a0f021 	move	s8,sp
a0804ee8:	24040030 	li	a0,48
a0804eec:	00002821 	move	a1,zero
a0804ef0:	00003021 	move	a2,zero
a0804ef4:	00003821 	move	a3,zero
a0804ef8:	0c200260 	jal	a0800980 <invoke_syscall>
a0804efc:	00000000 	nop
a0804f00:	03c0e821 	move	sp,s8
a0804f04:	8fbf0014 	lw	ra,20(sp)
a0804f08:	8fbe0010 	lw	s8,16(sp)
a0804f0c:	27bd0018 	addiu	sp,sp,24
a0804f10:	03e00008 	jr	ra
a0804f14:	00000000 	nop

a0804f18 <sys_waitpid>:
a0804f18:	27bdffe8 	addiu	sp,sp,-24
a0804f1c:	afbf0014 	sw	ra,20(sp)
a0804f20:	afbe0010 	sw	s8,16(sp)
a0804f24:	03a0f021 	move	s8,sp
a0804f28:	afc40018 	sw	a0,24(s8)
a0804f2c:	24040031 	li	a0,49
a0804f30:	8fc50018 	lw	a1,24(s8)
a0804f34:	00003021 	move	a2,zero
a0804f38:	00003821 	move	a3,zero
a0804f3c:	0c200260 	jal	a0800980 <invoke_syscall>
a0804f40:	00000000 	nop
a0804f44:	03c0e821 	move	sp,s8
a0804f48:	8fbf0014 	lw	ra,20(sp)
a0804f4c:	8fbe0010 	lw	s8,16(sp)
a0804f50:	27bd0018 	addiu	sp,sp,24
a0804f54:	03e00008 	jr	ra
a0804f58:	00000000 	nop

a0804f5c <semaphore_init>:
a0804f5c:	27bdffe8 	addiu	sp,sp,-24
a0804f60:	afbf0014 	sw	ra,20(sp)
a0804f64:	afbe0010 	sw	s8,16(sp)
a0804f68:	03a0f021 	move	s8,sp
a0804f6c:	afc40018 	sw	a0,24(s8)
a0804f70:	afc5001c 	sw	a1,28(s8)
a0804f74:	8fc20018 	lw	v0,24(s8)
a0804f78:	24040032 	li	a0,50
a0804f7c:	00402821 	move	a1,v0
a0804f80:	8fc6001c 	lw	a2,28(s8)
a0804f84:	00003821 	move	a3,zero
a0804f88:	0c200260 	jal	a0800980 <invoke_syscall>
a0804f8c:	00000000 	nop
a0804f90:	03c0e821 	move	sp,s8
a0804f94:	8fbf0014 	lw	ra,20(sp)
a0804f98:	8fbe0010 	lw	s8,16(sp)
a0804f9c:	27bd0018 	addiu	sp,sp,24
a0804fa0:	03e00008 	jr	ra
a0804fa4:	00000000 	nop

a0804fa8 <semaphore_up>:
a0804fa8:	27bdffe8 	addiu	sp,sp,-24
a0804fac:	afbf0014 	sw	ra,20(sp)
a0804fb0:	afbe0010 	sw	s8,16(sp)
a0804fb4:	03a0f021 	move	s8,sp
a0804fb8:	afc40018 	sw	a0,24(s8)
a0804fbc:	8fc20018 	lw	v0,24(s8)
a0804fc0:	24040033 	li	a0,51
a0804fc4:	00402821 	move	a1,v0
a0804fc8:	00003021 	move	a2,zero
a0804fcc:	00003821 	move	a3,zero
a0804fd0:	0c200260 	jal	a0800980 <invoke_syscall>
a0804fd4:	00000000 	nop
a0804fd8:	03c0e821 	move	sp,s8
a0804fdc:	8fbf0014 	lw	ra,20(sp)
a0804fe0:	8fbe0010 	lw	s8,16(sp)
a0804fe4:	27bd0018 	addiu	sp,sp,24
a0804fe8:	03e00008 	jr	ra
a0804fec:	00000000 	nop

a0804ff0 <semaphore_down>:
a0804ff0:	27bdffe8 	addiu	sp,sp,-24
a0804ff4:	afbf0014 	sw	ra,20(sp)
a0804ff8:	afbe0010 	sw	s8,16(sp)
a0804ffc:	03a0f021 	move	s8,sp
a0805000:	afc40018 	sw	a0,24(s8)
a0805004:	8fc20018 	lw	v0,24(s8)
a0805008:	24040034 	li	a0,52
a080500c:	00402821 	move	a1,v0
a0805010:	00003021 	move	a2,zero
a0805014:	00003821 	move	a3,zero
a0805018:	0c200260 	jal	a0800980 <invoke_syscall>
a080501c:	00000000 	nop
a0805020:	03c0e821 	move	sp,s8
a0805024:	8fbf0014 	lw	ra,20(sp)
a0805028:	8fbe0010 	lw	s8,16(sp)
a080502c:	27bd0018 	addiu	sp,sp,24
a0805030:	03e00008 	jr	ra
a0805034:	00000000 	nop

a0805038 <condition_init>:
a0805038:	27bdffe8 	addiu	sp,sp,-24
a080503c:	afbf0014 	sw	ra,20(sp)
a0805040:	afbe0010 	sw	s8,16(sp)
a0805044:	03a0f021 	move	s8,sp
a0805048:	afc40018 	sw	a0,24(s8)
a080504c:	8fc20018 	lw	v0,24(s8)
a0805050:	24040035 	li	a0,53
a0805054:	00402821 	move	a1,v0
a0805058:	00003021 	move	a2,zero
a080505c:	00003821 	move	a3,zero
a0805060:	0c200260 	jal	a0800980 <invoke_syscall>
a0805064:	00000000 	nop
a0805068:	03c0e821 	move	sp,s8
a080506c:	8fbf0014 	lw	ra,20(sp)
a0805070:	8fbe0010 	lw	s8,16(sp)
a0805074:	27bd0018 	addiu	sp,sp,24
a0805078:	03e00008 	jr	ra
a080507c:	00000000 	nop

a0805080 <condition_wait>:
a0805080:	27bdffe8 	addiu	sp,sp,-24
a0805084:	afbf0014 	sw	ra,20(sp)
a0805088:	afbe0010 	sw	s8,16(sp)
a080508c:	03a0f021 	move	s8,sp
a0805090:	afc40018 	sw	a0,24(s8)
a0805094:	afc5001c 	sw	a1,28(s8)
a0805098:	8fc20018 	lw	v0,24(s8)
a080509c:	8fc3001c 	lw	v1,28(s8)
a08050a0:	24040036 	li	a0,54
a08050a4:	00402821 	move	a1,v0
a08050a8:	00603021 	move	a2,v1
a08050ac:	00003821 	move	a3,zero
a08050b0:	0c200260 	jal	a0800980 <invoke_syscall>
a08050b4:	00000000 	nop
a08050b8:	03c0e821 	move	sp,s8
a08050bc:	8fbf0014 	lw	ra,20(sp)
a08050c0:	8fbe0010 	lw	s8,16(sp)
a08050c4:	27bd0018 	addiu	sp,sp,24
a08050c8:	03e00008 	jr	ra
a08050cc:	00000000 	nop

a08050d0 <condition_signal>:
a08050d0:	27bdffe8 	addiu	sp,sp,-24
a08050d4:	afbf0014 	sw	ra,20(sp)
a08050d8:	afbe0010 	sw	s8,16(sp)
a08050dc:	03a0f021 	move	s8,sp
a08050e0:	afc40018 	sw	a0,24(s8)
a08050e4:	8fc20018 	lw	v0,24(s8)
a08050e8:	24040037 	li	a0,55
a08050ec:	00402821 	move	a1,v0
a08050f0:	00003021 	move	a2,zero
a08050f4:	00003821 	move	a3,zero
a08050f8:	0c200260 	jal	a0800980 <invoke_syscall>
a08050fc:	00000000 	nop
a0805100:	03c0e821 	move	sp,s8
a0805104:	8fbf0014 	lw	ra,20(sp)
a0805108:	8fbe0010 	lw	s8,16(sp)
a080510c:	27bd0018 	addiu	sp,sp,24
a0805110:	03e00008 	jr	ra
a0805114:	00000000 	nop

a0805118 <condition_broadcast>:
a0805118:	27bdffe8 	addiu	sp,sp,-24
a080511c:	afbf0014 	sw	ra,20(sp)
a0805120:	afbe0010 	sw	s8,16(sp)
a0805124:	03a0f021 	move	s8,sp
a0805128:	afc40018 	sw	a0,24(s8)
a080512c:	8fc20018 	lw	v0,24(s8)
a0805130:	24040038 	li	a0,56
a0805134:	00402821 	move	a1,v0
a0805138:	00003021 	move	a2,zero
a080513c:	00003821 	move	a3,zero
a0805140:	0c200260 	jal	a0800980 <invoke_syscall>
a0805144:	00000000 	nop
a0805148:	03c0e821 	move	sp,s8
a080514c:	8fbf0014 	lw	ra,20(sp)
a0805150:	8fbe0010 	lw	s8,16(sp)
a0805154:	27bd0018 	addiu	sp,sp,24
a0805158:	03e00008 	jr	ra
a080515c:	00000000 	nop

a0805160 <barrier_init>:
a0805160:	27bdffe8 	addiu	sp,sp,-24
a0805164:	afbf0014 	sw	ra,20(sp)
a0805168:	afbe0010 	sw	s8,16(sp)
a080516c:	03a0f021 	move	s8,sp
a0805170:	afc40018 	sw	a0,24(s8)
a0805174:	afc5001c 	sw	a1,28(s8)
a0805178:	8fc20018 	lw	v0,24(s8)
a080517c:	24040039 	li	a0,57
a0805180:	00402821 	move	a1,v0
a0805184:	8fc6001c 	lw	a2,28(s8)
a0805188:	00003821 	move	a3,zero
a080518c:	0c200260 	jal	a0800980 <invoke_syscall>
a0805190:	00000000 	nop
a0805194:	03c0e821 	move	sp,s8
a0805198:	8fbf0014 	lw	ra,20(sp)
a080519c:	8fbe0010 	lw	s8,16(sp)
a08051a0:	27bd0018 	addiu	sp,sp,24
a08051a4:	03e00008 	jr	ra
a08051a8:	00000000 	nop

a08051ac <barrier_wait>:
a08051ac:	27bdffe8 	addiu	sp,sp,-24
a08051b0:	afbf0014 	sw	ra,20(sp)
a08051b4:	afbe0010 	sw	s8,16(sp)
a08051b8:	03a0f021 	move	s8,sp
a08051bc:	afc40018 	sw	a0,24(s8)
a08051c0:	8fc20018 	lw	v0,24(s8)
a08051c4:	2404003a 	li	a0,58
a08051c8:	00402821 	move	a1,v0
a08051cc:	00003021 	move	a2,zero
a08051d0:	00003821 	move	a3,zero
a08051d4:	0c200260 	jal	a0800980 <invoke_syscall>
a08051d8:	00000000 	nop
a08051dc:	03c0e821 	move	sp,s8
a08051e0:	8fbf0014 	lw	ra,20(sp)
a08051e4:	8fbe0010 	lw	s8,16(sp)
a08051e8:	27bd0018 	addiu	sp,sp,24
a08051ec:	03e00008 	jr	ra
a08051f0:	00000000 	nop

a08051f4 <mbox_init>:
a08051f4:	27bdffe8 	addiu	sp,sp,-24
a08051f8:	afbf0014 	sw	ra,20(sp)
a08051fc:	afbe0010 	sw	s8,16(sp)
a0805200:	03a0f021 	move	s8,sp
a0805204:	24040023 	li	a0,35
a0805208:	00002821 	move	a1,zero
a080520c:	00003021 	move	a2,zero
a0805210:	00003821 	move	a3,zero
a0805214:	0c200260 	jal	a0800980 <invoke_syscall>
a0805218:	00000000 	nop
a080521c:	03c0e821 	move	sp,s8
a0805220:	8fbf0014 	lw	ra,20(sp)
a0805224:	8fbe0010 	lw	s8,16(sp)
a0805228:	27bd0018 	addiu	sp,sp,24
a080522c:	03e00008 	jr	ra
a0805230:	00000000 	nop

a0805234 <mbox_open>:
a0805234:	27bdffe0 	addiu	sp,sp,-32
a0805238:	afbf001c 	sw	ra,28(sp)
a080523c:	afbe0018 	sw	s8,24(sp)
a0805240:	03a0f021 	move	s8,sp
a0805244:	afc40020 	sw	a0,32(s8)
a0805248:	8fc20020 	lw	v0,32(s8)
a080524c:	24040024 	li	a0,36
a0805250:	00402821 	move	a1,v0
a0805254:	00003021 	move	a2,zero
a0805258:	00003821 	move	a3,zero
a080525c:	0c200260 	jal	a0800980 <invoke_syscall>
a0805260:	00000000 	nop
a0805264:	03c0e821 	move	sp,s8
a0805268:	8fbf001c 	lw	ra,28(sp)
a080526c:	8fbe0018 	lw	s8,24(sp)
a0805270:	27bd0020 	addiu	sp,sp,32
a0805274:	03e00008 	jr	ra
a0805278:	00000000 	nop

a080527c <mbox_close>:
a080527c:	27bdffe8 	addiu	sp,sp,-24
a0805280:	afbf0014 	sw	ra,20(sp)
a0805284:	afbe0010 	sw	s8,16(sp)
a0805288:	03a0f021 	move	s8,sp
a080528c:	afc40018 	sw	a0,24(s8)
a0805290:	8fc20018 	lw	v0,24(s8)
a0805294:	24040025 	li	a0,37
a0805298:	00402821 	move	a1,v0
a080529c:	00003021 	move	a2,zero
a08052a0:	00003821 	move	a3,zero
a08052a4:	0c200260 	jal	a0800980 <invoke_syscall>
a08052a8:	00000000 	nop
a08052ac:	03c0e821 	move	sp,s8
a08052b0:	8fbf0014 	lw	ra,20(sp)
a08052b4:	8fbe0010 	lw	s8,16(sp)
a08052b8:	27bd0018 	addiu	sp,sp,24
a08052bc:	03e00008 	jr	ra
a08052c0:	00000000 	nop

a08052c4 <mbox_send>:
a08052c4:	27bdffe8 	addiu	sp,sp,-24
a08052c8:	afbf0014 	sw	ra,20(sp)
a08052cc:	afbe0010 	sw	s8,16(sp)
a08052d0:	03a0f021 	move	s8,sp
a08052d4:	afc40018 	sw	a0,24(s8)
a08052d8:	afc5001c 	sw	a1,28(s8)
a08052dc:	afc60020 	sw	a2,32(s8)
a08052e0:	8fc20018 	lw	v0,24(s8)
a08052e4:	8fc3001c 	lw	v1,28(s8)
a08052e8:	24040026 	li	a0,38
a08052ec:	00402821 	move	a1,v0
a08052f0:	00603021 	move	a2,v1
a08052f4:	8fc70020 	lw	a3,32(s8)
a08052f8:	0c200260 	jal	a0800980 <invoke_syscall>
a08052fc:	00000000 	nop
a0805300:	03c0e821 	move	sp,s8
a0805304:	8fbf0014 	lw	ra,20(sp)
a0805308:	8fbe0010 	lw	s8,16(sp)
a080530c:	27bd0018 	addiu	sp,sp,24
a0805310:	03e00008 	jr	ra
a0805314:	00000000 	nop

a0805318 <mbox_recv>:
a0805318:	27bdffe8 	addiu	sp,sp,-24
a080531c:	afbf0014 	sw	ra,20(sp)
a0805320:	afbe0010 	sw	s8,16(sp)
a0805324:	03a0f021 	move	s8,sp
a0805328:	afc40018 	sw	a0,24(s8)
a080532c:	afc5001c 	sw	a1,28(s8)
a0805330:	afc60020 	sw	a2,32(s8)
a0805334:	8fc20018 	lw	v0,24(s8)
a0805338:	8fc3001c 	lw	v1,28(s8)
a080533c:	24040027 	li	a0,39
a0805340:	00402821 	move	a1,v0
a0805344:	00603021 	move	a2,v1
a0805348:	8fc70020 	lw	a3,32(s8)
a080534c:	0c200260 	jal	a0800980 <invoke_syscall>
a0805350:	00000000 	nop
a0805354:	03c0e821 	move	sp,s8
a0805358:	8fbf0014 	lw	ra,20(sp)
a080535c:	8fbe0010 	lw	s8,16(sp)
a0805360:	27bd0018 	addiu	sp,sp,24
a0805364:	03e00008 	jr	ra
a0805368:	00000000 	nop

a080536c <sys_init_mac>:
a080536c:	27bdffe8 	addiu	sp,sp,-24
a0805370:	afbf0014 	sw	ra,20(sp)
a0805374:	afbe0010 	sw	s8,16(sp)
a0805378:	03a0f021 	move	s8,sp
a080537c:	24040006 	li	a0,6
a0805380:	00002821 	move	a1,zero
a0805384:	00003021 	move	a2,zero
a0805388:	00003821 	move	a3,zero
a080538c:	0c200260 	jal	a0800980 <invoke_syscall>
a0805390:	00000000 	nop
a0805394:	03c0e821 	move	sp,s8
a0805398:	8fbf0014 	lw	ra,20(sp)
a080539c:	8fbe0010 	lw	s8,16(sp)
a08053a0:	27bd0018 	addiu	sp,sp,24
a08053a4:	03e00008 	jr	ra
a08053a8:	00000000 	nop

a08053ac <sys_net_recv>:
a08053ac:	27bdffe0 	addiu	sp,sp,-32
a08053b0:	afbf001c 	sw	ra,28(sp)
a08053b4:	afbe0018 	sw	s8,24(sp)
a08053b8:	03a0f021 	move	s8,sp
a08053bc:	afc40020 	sw	a0,32(s8)
a08053c0:	afc50024 	sw	a1,36(s8)
a08053c4:	afc60028 	sw	a2,40(s8)
a08053c8:	8fc20020 	lw	v0,32(s8)
a08053cc:	8fc30024 	lw	v1,36(s8)
a08053d0:	8fc70028 	lw	a3,40(s8)
a08053d4:	24040007 	li	a0,7
a08053d8:	00402821 	move	a1,v0
a08053dc:	00603021 	move	a2,v1
a08053e0:	0c200260 	jal	a0800980 <invoke_syscall>
a08053e4:	00000000 	nop
a08053e8:	03c0e821 	move	sp,s8
a08053ec:	8fbf001c 	lw	ra,28(sp)
a08053f0:	8fbe0018 	lw	s8,24(sp)
a08053f4:	27bd0020 	addiu	sp,sp,32
a08053f8:	03e00008 	jr	ra
a08053fc:	00000000 	nop

a0805400 <sys_net_send>:
a0805400:	27bdffe8 	addiu	sp,sp,-24
a0805404:	afbf0014 	sw	ra,20(sp)
a0805408:	afbe0010 	sw	s8,16(sp)
a080540c:	03a0f021 	move	s8,sp
a0805410:	afc40018 	sw	a0,24(s8)
a0805414:	afc5001c 	sw	a1,28(s8)
a0805418:	8fc20018 	lw	v0,24(s8)
a080541c:	8fc3001c 	lw	v1,28(s8)
a0805420:	24040008 	li	a0,8
a0805424:	00402821 	move	a1,v0
a0805428:	00603021 	move	a2,v1
a080542c:	00003821 	move	a3,zero
a0805430:	0c200260 	jal	a0800980 <invoke_syscall>
a0805434:	00000000 	nop
a0805438:	03c0e821 	move	sp,s8
a080543c:	8fbf0014 	lw	ra,20(sp)
a0805440:	8fbe0010 	lw	s8,16(sp)
a0805444:	27bd0018 	addiu	sp,sp,24
a0805448:	03e00008 	jr	ra
a080544c:	00000000 	nop

a0805450 <do_mbox_init>:
a0805450:	27bdffe0 	addiu	sp,sp,-32
a0805454:	afbf001c 	sw	ra,28(sp)
a0805458:	afbe0018 	sw	s8,24(sp)
a080545c:	03a0f021 	move	s8,sp
a0805460:	3c02a081 	lui	v0,0xa081
a0805464:	2444ced0 	addiu	a0,v0,-12592
a0805468:	0c200c2b 	jal	a08030ac <do_mutex_lock_init>
a080546c:	00000000 	nop
a0805470:	afc00010 	sw	zero,16(s8)
a0805474:	0820155d 	j	a0805574 <do_mbox_init+0x124>
a0805478:	00000000 	nop
a080547c:	8fc20010 	lw	v0,16(s8)
a0805480:	3c03a081 	lui	v1,0xa081
a0805484:	000221c0 	sll	a0,v0,0x7
a0805488:	2462bed0 	addiu	v0,v1,-16688
a080548c:	00821021 	addu	v0,a0,v0
a0805490:	a0400000 	sb	zero,0(v0)
a0805494:	8fc20010 	lw	v0,16(s8)
a0805498:	3c03a081 	lui	v1,0xa081
a080549c:	000221c0 	sll	a0,v0,0x7
a08054a0:	2462bed0 	addiu	v0,v1,-16688
a08054a4:	00821021 	addu	v0,a0,v0
a08054a8:	ac400060 	sw	zero,96(v0)
a08054ac:	8fc40010 	lw	a0,16(s8)
a08054b0:	3c02a081 	lui	v0,0xa081
a08054b4:	2443bed0 	addiu	v1,v0,-16688
a08054b8:	000411c0 	sll	v0,a0,0x7
a08054bc:	00621021 	addu	v0,v1,v0
a08054c0:	ac400064 	sw	zero,100(v0)
a08054c4:	8fc20010 	lw	v0,16(s8)
a08054c8:	3c03a081 	lui	v1,0xa081
a08054cc:	000221c0 	sll	a0,v0,0x7
a08054d0:	2462bed0 	addiu	v0,v1,-16688
a08054d4:	00821021 	addu	v0,a0,v0
a08054d8:	ac400068 	sw	zero,104(v0)
a08054dc:	8fc40010 	lw	a0,16(s8)
a08054e0:	3c02a081 	lui	v0,0xa081
a08054e4:	2443bed0 	addiu	v1,v0,-16688
a08054e8:	000411c0 	sll	v0,a0,0x7
a08054ec:	00621021 	addu	v0,v1,v0
a08054f0:	ac40006c 	sw	zero,108(v0)
a08054f4:	8fc20010 	lw	v0,16(s8)
a08054f8:	00021080 	sll	v0,v0,0x2
a08054fc:	24420001 	addiu	v0,v0,1
a0805500:	00021940 	sll	v1,v0,0x5
a0805504:	3c02a081 	lui	v0,0xa081
a0805508:	2442bed0 	addiu	v0,v0,-16688
a080550c:	00621021 	addu	v0,v1,v0
a0805510:	00402021 	move	a0,v0
a0805514:	24050040 	li	a1,64
a0805518:	0c2016f3 	jal	a0805bcc <bzero>
a080551c:	00000000 	nop
a0805520:	8fc20010 	lw	v0,16(s8)
a0805524:	000211c0 	sll	v0,v0,0x7
a0805528:	24430070 	addiu	v1,v0,112
a080552c:	3c02a081 	lui	v0,0xa081
a0805530:	2442bed0 	addiu	v0,v0,-16688
a0805534:	00621021 	addu	v0,v1,v0
a0805538:	00402021 	move	a0,v0
a080553c:	0c200b7c 	jal	a0802df0 <do_condition_init>
a0805540:	00000000 	nop
a0805544:	8fc20010 	lw	v0,16(s8)
a0805548:	000211c0 	sll	v0,v0,0x7
a080554c:	24430078 	addiu	v1,v0,120
a0805550:	3c02a081 	lui	v0,0xa081
a0805554:	2442bed0 	addiu	v0,v0,-16688
a0805558:	00621021 	addu	v0,v1,v0
a080555c:	00402021 	move	a0,v0
a0805560:	0c200b7c 	jal	a0802df0 <do_condition_init>
a0805564:	00000000 	nop
a0805568:	8fc20010 	lw	v0,16(s8)
a080556c:	24420001 	addiu	v0,v0,1
a0805570:	afc20010 	sw	v0,16(s8)
a0805574:	8fc20010 	lw	v0,16(s8)
a0805578:	28420020 	slti	v0,v0,32
a080557c:	1440ffbf 	bnez	v0,a080547c <do_mbox_init+0x2c>
a0805580:	00000000 	nop
a0805584:	03c0e821 	move	sp,s8
a0805588:	8fbf001c 	lw	ra,28(sp)
a080558c:	8fbe0018 	lw	s8,24(sp)
a0805590:	27bd0020 	addiu	sp,sp,32
a0805594:	03e00008 	jr	ra
a0805598:	00000000 	nop

a080559c <do_mbox_open>:
a080559c:	27bdffd0 	addiu	sp,sp,-48
a08055a0:	afbf002c 	sw	ra,44(sp)
a08055a4:	afbe0028 	sw	s8,40(sp)
a08055a8:	afb10024 	sw	s1,36(sp)
a08055ac:	afb00020 	sw	s0,32(sp)
a08055b0:	03a0f021 	move	s8,sp
a08055b4:	afc40030 	sw	a0,48(s8)
a08055b8:	afc00010 	sw	zero,16(s8)
a08055bc:	0820159b 	j	a080566c <do_mbox_open+0xd0>
a08055c0:	00000000 	nop
a08055c4:	8fc20010 	lw	v0,16(s8)
a08055c8:	000219c0 	sll	v1,v0,0x7
a08055cc:	3c02a081 	lui	v0,0xa081
a08055d0:	2442bed0 	addiu	v0,v0,-16688
a08055d4:	00621021 	addu	v0,v1,v0
a08055d8:	00402021 	move	a0,v0
a08055dc:	8fc50030 	lw	a1,48(s8)
a08055e0:	0c201704 	jal	a0805c10 <strcmp>
a08055e4:	00000000 	nop
a08055e8:	1440001d 	bnez	v0,a0805660 <do_mbox_open+0xc4>
a08055ec:	00000000 	nop
a08055f0:	8fc20010 	lw	v0,16(s8)
a08055f4:	3c03a081 	lui	v1,0xa081
a08055f8:	000221c0 	sll	a0,v0,0x7
a08055fc:	2462bed0 	addiu	v0,v1,-16688
a0805600:	00821021 	addu	v0,a0,v0
a0805604:	8c420060 	lw	v0,96(v0)
a0805608:	10400015 	beqz	v0,a0805660 <do_mbox_open+0xc4>
a080560c:	00000000 	nop
a0805610:	8fc50010 	lw	a1,16(s8)
a0805614:	3c02a081 	lui	v0,0xa081
a0805618:	000519c0 	sll	v1,a1,0x7
a080561c:	2442bed0 	addiu	v0,v0,-16688
a0805620:	00621021 	addu	v0,v1,v0
a0805624:	8c420060 	lw	v0,96(v0)
a0805628:	24440001 	addiu	a0,v0,1
a080562c:	3c02a081 	lui	v0,0xa081
a0805630:	000519c0 	sll	v1,a1,0x7
a0805634:	2442bed0 	addiu	v0,v0,-16688
a0805638:	00621021 	addu	v0,v1,v0
a080563c:	ac440060 	sw	a0,96(v0)
a0805640:	8fc20010 	lw	v0,16(s8)
a0805644:	000219c0 	sll	v1,v0,0x7
a0805648:	3c02a081 	lui	v0,0xa081
a080564c:	2442bed0 	addiu	v0,v0,-16688
a0805650:	00621021 	addu	v0,v1,v0
a0805654:	afc20018 	sw	v0,24(s8)
a0805658:	082015d6 	j	a0805758 <do_mbox_open+0x1bc>
a080565c:	00000000 	nop
a0805660:	8fc20010 	lw	v0,16(s8)
a0805664:	24420001 	addiu	v0,v0,1
a0805668:	afc20010 	sw	v0,16(s8)
a080566c:	8fc20010 	lw	v0,16(s8)
a0805670:	28420020 	slti	v0,v0,32
a0805674:	1440ffd3 	bnez	v0,a08055c4 <do_mbox_open+0x28>
a0805678:	00000000 	nop
a080567c:	afc00010 	sw	zero,16(s8)
a0805680:	082015d0 	j	a0805740 <do_mbox_open+0x1a4>
a0805684:	00000000 	nop
a0805688:	8fc20010 	lw	v0,16(s8)
a080568c:	3c03a081 	lui	v1,0xa081
a0805690:	000221c0 	sll	a0,v0,0x7
a0805694:	2462bed0 	addiu	v0,v1,-16688
a0805698:	00821021 	addu	v0,a0,v0
a080569c:	8c420060 	lw	v0,96(v0)
a08056a0:	14400024 	bnez	v0,a0805734 <do_mbox_open+0x198>
a08056a4:	00000000 	nop
a08056a8:	8fc20010 	lw	v0,16(s8)
a08056ac:	000219c0 	sll	v1,v0,0x7
a08056b0:	3c02a081 	lui	v0,0xa081
a08056b4:	2442bed0 	addiu	v0,v0,-16688
a08056b8:	00621021 	addu	v0,v1,v0
a08056bc:	00408021 	move	s0,v0
a08056c0:	8fd10030 	lw	s1,48(s8)
a08056c4:	8fc40030 	lw	a0,48(s8)
a08056c8:	0c2016a4 	jal	a0805a90 <strlen>
a08056cc:	00000000 	nop
a08056d0:	02002021 	move	a0,s0
a08056d4:	02202821 	move	a1,s1
a08056d8:	00403021 	move	a2,v0
a08056dc:	0c2016ba 	jal	a0805ae8 <memcpy>
a08056e0:	00000000 	nop
a08056e4:	8fc50010 	lw	a1,16(s8)
a08056e8:	3c02a081 	lui	v0,0xa081
a08056ec:	000519c0 	sll	v1,a1,0x7
a08056f0:	2442bed0 	addiu	v0,v0,-16688
a08056f4:	00621021 	addu	v0,v1,v0
a08056f8:	8c420060 	lw	v0,96(v0)
a08056fc:	24440001 	addiu	a0,v0,1
a0805700:	3c02a081 	lui	v0,0xa081
a0805704:	000519c0 	sll	v1,a1,0x7
a0805708:	2442bed0 	addiu	v0,v0,-16688
a080570c:	00621021 	addu	v0,v1,v0
a0805710:	ac440060 	sw	a0,96(v0)
a0805714:	8fc20010 	lw	v0,16(s8)
a0805718:	000219c0 	sll	v1,v0,0x7
a080571c:	3c02a081 	lui	v0,0xa081
a0805720:	2442bed0 	addiu	v0,v0,-16688
a0805724:	00621021 	addu	v0,v1,v0
a0805728:	afc20018 	sw	v0,24(s8)
a080572c:	082015d6 	j	a0805758 <do_mbox_open+0x1bc>
a0805730:	00000000 	nop
a0805734:	8fc20010 	lw	v0,16(s8)
a0805738:	24420001 	addiu	v0,v0,1
a080573c:	afc20010 	sw	v0,16(s8)
a0805740:	8fc20010 	lw	v0,16(s8)
a0805744:	28420020 	slti	v0,v0,32
a0805748:	1440ffcf 	bnez	v0,a0805688 <do_mbox_open+0xec>
a080574c:	00000000 	nop
a0805750:	082015d8 	j	a0805760 <do_mbox_open+0x1c4>
a0805754:	00000000 	nop
a0805758:	8fc20018 	lw	v0,24(s8)
a080575c:	afc2001c 	sw	v0,28(s8)
a0805760:	8fc2001c 	lw	v0,28(s8)
a0805764:	03c0e821 	move	sp,s8
a0805768:	8fbf002c 	lw	ra,44(sp)
a080576c:	8fbe0028 	lw	s8,40(sp)
a0805770:	8fb10024 	lw	s1,36(sp)
a0805774:	8fb00020 	lw	s0,32(sp)
a0805778:	27bd0030 	addiu	sp,sp,48
a080577c:	03e00008 	jr	ra
a0805780:	00000000 	nop

a0805784 <do_mbox_close>:
a0805784:	27bdffe8 	addiu	sp,sp,-24
a0805788:	afbf0014 	sw	ra,20(sp)
a080578c:	afbe0010 	sw	s8,16(sp)
a0805790:	03a0f021 	move	s8,sp
a0805794:	afc40018 	sw	a0,24(s8)
a0805798:	8fc20018 	lw	v0,24(s8)
a080579c:	8c420060 	lw	v0,96(v0)
a08057a0:	1440001b 	bnez	v0,a0805810 <do_mbox_close+0x8c>
a08057a4:	00000000 	nop
a08057a8:	8fc20018 	lw	v0,24(s8)
a08057ac:	a0400000 	sb	zero,0(v0)
a08057b0:	8fc20018 	lw	v0,24(s8)
a08057b4:	ac400060 	sw	zero,96(v0)
a08057b8:	8fc20018 	lw	v0,24(s8)
a08057bc:	ac400064 	sw	zero,100(v0)
a08057c0:	8fc20018 	lw	v0,24(s8)
a08057c4:	ac400068 	sw	zero,104(v0)
a08057c8:	8fc20018 	lw	v0,24(s8)
a08057cc:	ac40006c 	sw	zero,108(v0)
a08057d0:	8fc20018 	lw	v0,24(s8)
a08057d4:	24420020 	addiu	v0,v0,32
a08057d8:	00402021 	move	a0,v0
a08057dc:	24050040 	li	a1,64
a08057e0:	0c2016f3 	jal	a0805bcc <bzero>
a08057e4:	00000000 	nop
a08057e8:	8fc20018 	lw	v0,24(s8)
a08057ec:	24420070 	addiu	v0,v0,112
a08057f0:	00402021 	move	a0,v0
a08057f4:	0c200b7c 	jal	a0802df0 <do_condition_init>
a08057f8:	00000000 	nop
a08057fc:	8fc20018 	lw	v0,24(s8)
a0805800:	24420078 	addiu	v0,v0,120
a0805804:	00402021 	move	a0,v0
a0805808:	0c200b7c 	jal	a0802df0 <do_condition_init>
a080580c:	00000000 	nop
a0805810:	03c0e821 	move	sp,s8
a0805814:	8fbf0014 	lw	ra,20(sp)
a0805818:	8fbe0010 	lw	s8,16(sp)
a080581c:	27bd0018 	addiu	sp,sp,24
a0805820:	03e00008 	jr	ra
a0805824:	00000000 	nop

a0805828 <do_mbox_send>:
a0805828:	27bdffe0 	addiu	sp,sp,-32
a080582c:	afbf001c 	sw	ra,28(sp)
a0805830:	afbe0018 	sw	s8,24(sp)
a0805834:	03a0f021 	move	s8,sp
a0805838:	afc40020 	sw	a0,32(s8)
a080583c:	afc50024 	sw	a1,36(s8)
a0805840:	afc60028 	sw	a2,40(s8)
a0805844:	3c02a081 	lui	v0,0xa081
a0805848:	2444ced0 	addiu	a0,v0,-12592
a080584c:	0c200c3d 	jal	a08030f4 <do_mutex_lock_acquire>
a0805850:	00000000 	nop
a0805854:	afc00010 	sw	zero,16(s8)
a0805858:	08201642 	j	a0805908 <do_mbox_send+0xe0>
a080585c:	00000000 	nop
a0805860:	8fc20020 	lw	v0,32(s8)
a0805864:	24430078 	addiu	v1,v0,120
a0805868:	3c02a081 	lui	v0,0xa081
a080586c:	2444ced0 	addiu	a0,v0,-12592
a0805870:	00602821 	move	a1,v1
a0805874:	0c200b8b 	jal	a0802e2c <do_condition_wait>
a0805878:	00000000 	nop
a080587c:	8fc20020 	lw	v0,32(s8)
a0805880:	8c430064 	lw	v1,100(v0)
a0805884:	24020040 	li	v0,64
a0805888:	1062fff5 	beq	v1,v0,a0805860 <do_mbox_send+0x38>
a080588c:	00000000 	nop
a0805890:	8fc20020 	lw	v0,32(s8)
a0805894:	8c44006c 	lw	a0,108(v0)
a0805898:	8fc30024 	lw	v1,36(s8)
a080589c:	8fc20010 	lw	v0,16(s8)
a08058a0:	00621021 	addu	v0,v1,v0
a08058a4:	80430000 	lb	v1,0(v0)
a08058a8:	8fc20020 	lw	v0,32(s8)
a08058ac:	00441021 	addu	v0,v0,a0
a08058b0:	a0430020 	sb	v1,32(v0)
a08058b4:	24830001 	addiu	v1,a0,1
a08058b8:	8fc20020 	lw	v0,32(s8)
a08058bc:	ac43006c 	sw	v1,108(v0)
a08058c0:	8fc20020 	lw	v0,32(s8)
a08058c4:	8c43006c 	lw	v1,108(v0)
a08058c8:	000317c3 	sra	v0,v1,0x1f
a08058cc:	00022682 	srl	a0,v0,0x1a
a08058d0:	00641021 	addu	v0,v1,a0
a08058d4:	3042003f 	andi	v0,v0,0x3f
a08058d8:	00441023 	subu	v0,v0,a0
a08058dc:	00401821 	move	v1,v0
a08058e0:	8fc20020 	lw	v0,32(s8)
a08058e4:	ac43006c 	sw	v1,108(v0)
a08058e8:	8fc20020 	lw	v0,32(s8)
a08058ec:	8c420064 	lw	v0,100(v0)
a08058f0:	24430001 	addiu	v1,v0,1
a08058f4:	8fc20020 	lw	v0,32(s8)
a08058f8:	ac430064 	sw	v1,100(v0)
a08058fc:	8fc20010 	lw	v0,16(s8)
a0805900:	24420001 	addiu	v0,v0,1
a0805904:	afc20010 	sw	v0,16(s8)
a0805908:	8fc20010 	lw	v0,16(s8)
a080590c:	8fc30028 	lw	v1,40(s8)
a0805910:	0043102a 	slt	v0,v0,v1
a0805914:	1440ffd9 	bnez	v0,a080587c <do_mbox_send+0x54>
a0805918:	00000000 	nop
a080591c:	3c02a081 	lui	v0,0xa081
a0805920:	2444ced0 	addiu	a0,v0,-12592
a0805924:	0c200c5e 	jal	a0803178 <do_mutex_lock_release>
a0805928:	00000000 	nop
a080592c:	8fc20020 	lw	v0,32(s8)
a0805930:	24420070 	addiu	v0,v0,112
a0805934:	00402021 	move	a0,v0
a0805938:	0c200bb0 	jal	a0802ec0 <do_condition_broadcast>
a080593c:	00000000 	nop
a0805940:	03c0e821 	move	sp,s8
a0805944:	8fbf001c 	lw	ra,28(sp)
a0805948:	8fbe0018 	lw	s8,24(sp)
a080594c:	27bd0020 	addiu	sp,sp,32
a0805950:	03e00008 	jr	ra
a0805954:	00000000 	nop

a0805958 <do_mbox_recv>:
a0805958:	27bdffe0 	addiu	sp,sp,-32
a080595c:	afbf001c 	sw	ra,28(sp)
a0805960:	afbe0018 	sw	s8,24(sp)
a0805964:	03a0f021 	move	s8,sp
a0805968:	afc40020 	sw	a0,32(s8)
a080596c:	afc50024 	sw	a1,36(s8)
a0805970:	afc60028 	sw	a2,40(s8)
a0805974:	3c02a081 	lui	v0,0xa081
a0805978:	2444ced0 	addiu	a0,v0,-12592
a080597c:	0c200c3d 	jal	a08030f4 <do_mutex_lock_acquire>
a0805980:	00000000 	nop
a0805984:	afc00010 	sw	zero,16(s8)
a0805988:	0820168d 	j	a0805a34 <do_mbox_recv+0xdc>
a080598c:	00000000 	nop
a0805990:	8fc20020 	lw	v0,32(s8)
a0805994:	24430070 	addiu	v1,v0,112
a0805998:	3c02a081 	lui	v0,0xa081
a080599c:	2444ced0 	addiu	a0,v0,-12592
a08059a0:	00602821 	move	a1,v1
a08059a4:	0c200b8b 	jal	a0802e2c <do_condition_wait>
a08059a8:	00000000 	nop
a08059ac:	8fc20020 	lw	v0,32(s8)
a08059b0:	8c420064 	lw	v0,100(v0)
a08059b4:	1040fff6 	beqz	v0,a0805990 <do_mbox_recv+0x38>
a08059b8:	00000000 	nop
a08059bc:	8fc30024 	lw	v1,36(s8)
a08059c0:	8fc20010 	lw	v0,16(s8)
a08059c4:	00622021 	addu	a0,v1,v0
a08059c8:	8fc20020 	lw	v0,32(s8)
a08059cc:	8c430068 	lw	v1,104(v0)
a08059d0:	8fc20020 	lw	v0,32(s8)
a08059d4:	00431021 	addu	v0,v0,v1
a08059d8:	80420020 	lb	v0,32(v0)
a08059dc:	a0820000 	sb	v0,0(a0)
a08059e0:	24630001 	addiu	v1,v1,1
a08059e4:	8fc20020 	lw	v0,32(s8)
a08059e8:	ac430068 	sw	v1,104(v0)
a08059ec:	8fc20020 	lw	v0,32(s8)
a08059f0:	8c430068 	lw	v1,104(v0)
a08059f4:	000317c3 	sra	v0,v1,0x1f
a08059f8:	00022682 	srl	a0,v0,0x1a
a08059fc:	00641021 	addu	v0,v1,a0
a0805a00:	3042003f 	andi	v0,v0,0x3f
a0805a04:	00441023 	subu	v0,v0,a0
a0805a08:	00401821 	move	v1,v0
a0805a0c:	8fc20020 	lw	v0,32(s8)
a0805a10:	ac430068 	sw	v1,104(v0)
a0805a14:	8fc20020 	lw	v0,32(s8)
a0805a18:	8c420064 	lw	v0,100(v0)
a0805a1c:	2443ffff 	addiu	v1,v0,-1
a0805a20:	8fc20020 	lw	v0,32(s8)
a0805a24:	ac430064 	sw	v1,100(v0)
a0805a28:	8fc20010 	lw	v0,16(s8)
a0805a2c:	24420001 	addiu	v0,v0,1
a0805a30:	afc20010 	sw	v0,16(s8)
a0805a34:	8fc20010 	lw	v0,16(s8)
a0805a38:	8fc30028 	lw	v1,40(s8)
a0805a3c:	0043102a 	slt	v0,v0,v1
a0805a40:	1440ffda 	bnez	v0,a08059ac <do_mbox_recv+0x54>
a0805a44:	00000000 	nop
a0805a48:	3c02a081 	lui	v0,0xa081
a0805a4c:	2444ced0 	addiu	a0,v0,-12592
a0805a50:	0c200c5e 	jal	a0803178 <do_mutex_lock_release>
a0805a54:	00000000 	nop
a0805a58:	8fc20020 	lw	v0,32(s8)
a0805a5c:	24420078 	addiu	v0,v0,120
a0805a60:	00402021 	move	a0,v0
a0805a64:	0c200bb0 	jal	a0802ec0 <do_condition_broadcast>
a0805a68:	00000000 	nop
a0805a6c:	03c0e821 	move	sp,s8
a0805a70:	8fbf001c 	lw	ra,28(sp)
a0805a74:	8fbe0018 	lw	s8,24(sp)
a0805a78:	27bd0020 	addiu	sp,sp,32
a0805a7c:	03e00008 	jr	ra
a0805a80:	00000000 	nop
	...

a0805a90 <strlen>:
a0805a90:	27bdfff0 	addiu	sp,sp,-16
a0805a94:	afbe000c 	sw	s8,12(sp)
a0805a98:	03a0f021 	move	s8,sp
a0805a9c:	afc40010 	sw	a0,16(s8)
a0805aa0:	afc00000 	sw	zero,0(s8)
a0805aa4:	082016ae 	j	a0805ab8 <strlen+0x28>
a0805aa8:	00000000 	nop
a0805aac:	8fc20000 	lw	v0,0(s8)
a0805ab0:	24420001 	addiu	v0,v0,1
a0805ab4:	afc20000 	sw	v0,0(s8)
a0805ab8:	8fc30000 	lw	v1,0(s8)
a0805abc:	8fc20010 	lw	v0,16(s8)
a0805ac0:	00431021 	addu	v0,v0,v1
a0805ac4:	80420000 	lb	v0,0(v0)
a0805ac8:	1440fff8 	bnez	v0,a0805aac <strlen+0x1c>
a0805acc:	00000000 	nop
a0805ad0:	8fc20000 	lw	v0,0(s8)
a0805ad4:	03c0e821 	move	sp,s8
a0805ad8:	8fbe000c 	lw	s8,12(sp)
a0805adc:	27bd0010 	addiu	sp,sp,16
a0805ae0:	03e00008 	jr	ra
a0805ae4:	00000000 	nop

a0805ae8 <memcpy>:
a0805ae8:	27bdfff8 	addiu	sp,sp,-8
a0805aec:	afbe0004 	sw	s8,4(sp)
a0805af0:	03a0f021 	move	s8,sp
a0805af4:	afc40008 	sw	a0,8(s8)
a0805af8:	afc5000c 	sw	a1,12(s8)
a0805afc:	afc60010 	sw	a2,16(s8)
a0805b00:	082016cf 	j	a0805b3c <memcpy+0x54>
a0805b04:	00000000 	nop
a0805b08:	8fc2000c 	lw	v0,12(s8)
a0805b0c:	90430000 	lbu	v1,0(v0)
a0805b10:	8fc20008 	lw	v0,8(s8)
a0805b14:	a0430000 	sb	v1,0(v0)
a0805b18:	8fc20008 	lw	v0,8(s8)
a0805b1c:	24420001 	addiu	v0,v0,1
a0805b20:	afc20008 	sw	v0,8(s8)
a0805b24:	8fc2000c 	lw	v0,12(s8)
a0805b28:	24420001 	addiu	v0,v0,1
a0805b2c:	afc2000c 	sw	v0,12(s8)
a0805b30:	8fc20010 	lw	v0,16(s8)
a0805b34:	2442ffff 	addiu	v0,v0,-1
a0805b38:	afc20010 	sw	v0,16(s8)
a0805b3c:	8fc20010 	lw	v0,16(s8)
a0805b40:	1440fff1 	bnez	v0,a0805b08 <memcpy+0x20>
a0805b44:	00000000 	nop
a0805b48:	03c0e821 	move	sp,s8
a0805b4c:	8fbe0004 	lw	s8,4(sp)
a0805b50:	27bd0008 	addiu	sp,sp,8
a0805b54:	03e00008 	jr	ra
a0805b58:	00000000 	nop

a0805b5c <memset>:
a0805b5c:	27bdfff0 	addiu	sp,sp,-16
a0805b60:	afbe000c 	sw	s8,12(sp)
a0805b64:	03a0f021 	move	s8,sp
a0805b68:	afc40010 	sw	a0,16(s8)
a0805b6c:	00a01021 	move	v0,a1
a0805b70:	afc60018 	sw	a2,24(s8)
a0805b74:	a3c20014 	sb	v0,20(s8)
a0805b78:	8fc20010 	lw	v0,16(s8)
a0805b7c:	afc20000 	sw	v0,0(s8)
a0805b80:	082016eb 	j	a0805bac <memset+0x50>
a0805b84:	00000000 	nop
a0805b88:	8fc30000 	lw	v1,0(s8)
a0805b8c:	93c20014 	lbu	v0,20(s8)
a0805b90:	a0620000 	sb	v0,0(v1)
a0805b94:	8fc20000 	lw	v0,0(s8)
a0805b98:	24420001 	addiu	v0,v0,1
a0805b9c:	afc20000 	sw	v0,0(s8)
a0805ba0:	8fc20018 	lw	v0,24(s8)
a0805ba4:	2442ffff 	addiu	v0,v0,-1
a0805ba8:	afc20018 	sw	v0,24(s8)
a0805bac:	8fc20018 	lw	v0,24(s8)
a0805bb0:	1440fff5 	bnez	v0,a0805b88 <memset+0x2c>
a0805bb4:	00000000 	nop
a0805bb8:	03c0e821 	move	sp,s8
a0805bbc:	8fbe000c 	lw	s8,12(sp)
a0805bc0:	27bd0010 	addiu	sp,sp,16
a0805bc4:	03e00008 	jr	ra
a0805bc8:	00000000 	nop

a0805bcc <bzero>:
a0805bcc:	27bdffe8 	addiu	sp,sp,-24
a0805bd0:	afbf0014 	sw	ra,20(sp)
a0805bd4:	afbe0010 	sw	s8,16(sp)
a0805bd8:	03a0f021 	move	s8,sp
a0805bdc:	afc40018 	sw	a0,24(s8)
a0805be0:	afc5001c 	sw	a1,28(s8)
a0805be4:	8fc40018 	lw	a0,24(s8)
a0805be8:	00002821 	move	a1,zero
a0805bec:	8fc6001c 	lw	a2,28(s8)
a0805bf0:	0c2016d7 	jal	a0805b5c <memset>
a0805bf4:	00000000 	nop
a0805bf8:	03c0e821 	move	sp,s8
a0805bfc:	8fbf0014 	lw	ra,20(sp)
a0805c00:	8fbe0010 	lw	s8,16(sp)
a0805c04:	27bd0018 	addiu	sp,sp,24
a0805c08:	03e00008 	jr	ra
a0805c0c:	00000000 	nop

a0805c10 <strcmp>:
a0805c10:	27bdfff0 	addiu	sp,sp,-16
a0805c14:	afbe000c 	sw	s8,12(sp)
a0805c18:	03a0f021 	move	s8,sp
a0805c1c:	afc40010 	sw	a0,16(s8)
a0805c20:	afc50014 	sw	a1,20(s8)
a0805c24:	08201711 	j	a0805c44 <strcmp+0x34>
a0805c28:	00000000 	nop
a0805c2c:	8fc20010 	lw	v0,16(s8)
a0805c30:	24420001 	addiu	v0,v0,1
a0805c34:	afc20010 	sw	v0,16(s8)
a0805c38:	8fc20014 	lw	v0,20(s8)
a0805c3c:	24420001 	addiu	v0,v0,1
a0805c40:	afc20014 	sw	v0,20(s8)
a0805c44:	8fc20010 	lw	v0,16(s8)
a0805c48:	80420000 	lb	v0,0(v0)
a0805c4c:	1040000b 	beqz	v0,a0805c7c <strcmp+0x6c>
a0805c50:	00000000 	nop
a0805c54:	8fc20014 	lw	v0,20(s8)
a0805c58:	80420000 	lb	v0,0(v0)
a0805c5c:	10400007 	beqz	v0,a0805c7c <strcmp+0x6c>
a0805c60:	00000000 	nop
a0805c64:	8fc20010 	lw	v0,16(s8)
a0805c68:	80430000 	lb	v1,0(v0)
a0805c6c:	8fc20014 	lw	v0,20(s8)
a0805c70:	80420000 	lb	v0,0(v0)
a0805c74:	1062ffed 	beq	v1,v0,a0805c2c <strcmp+0x1c>
a0805c78:	00000000 	nop
a0805c7c:	8fc20010 	lw	v0,16(s8)
a0805c80:	80420000 	lb	v0,0(v0)
a0805c84:	14400008 	bnez	v0,a0805ca8 <strcmp+0x98>
a0805c88:	00000000 	nop
a0805c8c:	8fc20014 	lw	v0,20(s8)
a0805c90:	80420000 	lb	v0,0(v0)
a0805c94:	14400004 	bnez	v0,a0805ca8 <strcmp+0x98>
a0805c98:	00000000 	nop
a0805c9c:	afc00000 	sw	zero,0(s8)
a0805ca0:	08201734 	j	a0805cd0 <strcmp+0xc0>
a0805ca4:	00000000 	nop
a0805ca8:	8fc20010 	lw	v0,16(s8)
a0805cac:	80420000 	lb	v0,0(v0)
a0805cb0:	14400005 	bnez	v0,a0805cc8 <strcmp+0xb8>
a0805cb4:	00000000 	nop
a0805cb8:	2402ffff 	li	v0,-1
a0805cbc:	afc20000 	sw	v0,0(s8)
a0805cc0:	08201734 	j	a0805cd0 <strcmp+0xc0>
a0805cc4:	00000000 	nop
a0805cc8:	24020001 	li	v0,1
a0805ccc:	afc20000 	sw	v0,0(s8)
a0805cd0:	8fc20000 	lw	v0,0(s8)
a0805cd4:	03c0e821 	move	sp,s8
a0805cd8:	8fbe000c 	lw	s8,12(sp)
a0805cdc:	27bd0010 	addiu	sp,sp,16
a0805ce0:	03e00008 	jr	ra
a0805ce4:	00000000 	nop

a0805ce8 <strcpy>:
a0805ce8:	27bdfff0 	addiu	sp,sp,-16
a0805cec:	afbe000c 	sw	s8,12(sp)
a0805cf0:	03a0f021 	move	s8,sp
a0805cf4:	afc40010 	sw	a0,16(s8)
a0805cf8:	afc50014 	sw	a1,20(s8)
a0805cfc:	8fc20010 	lw	v0,16(s8)
a0805d00:	afc20000 	sw	v0,0(s8)
a0805d04:	0820174d 	j	a0805d34 <strcpy+0x4c>
a0805d08:	00000000 	nop
a0805d0c:	8fc20014 	lw	v0,20(s8)
a0805d10:	80430000 	lb	v1,0(v0)
a0805d14:	8fc20010 	lw	v0,16(s8)
a0805d18:	a0430000 	sb	v1,0(v0)
a0805d1c:	8fc20010 	lw	v0,16(s8)
a0805d20:	24420001 	addiu	v0,v0,1
a0805d24:	afc20010 	sw	v0,16(s8)
a0805d28:	8fc20014 	lw	v0,20(s8)
a0805d2c:	24420001 	addiu	v0,v0,1
a0805d30:	afc20014 	sw	v0,20(s8)
a0805d34:	8fc20014 	lw	v0,20(s8)
a0805d38:	80420000 	lb	v0,0(v0)
a0805d3c:	1440fff3 	bnez	v0,a0805d0c <strcpy+0x24>
a0805d40:	00000000 	nop
a0805d44:	8fc20010 	lw	v0,16(s8)
a0805d48:	a0400000 	sb	zero,0(v0)
a0805d4c:	8fc20000 	lw	v0,0(s8)
a0805d50:	03c0e821 	move	sp,s8
a0805d54:	8fbe000c 	lw	s8,12(sp)
a0805d58:	27bd0010 	addiu	sp,sp,16
a0805d5c:	03e00008 	jr	ra
a0805d60:	00000000 	nop
	...

a0805d70 <mini_strlen>:
a0805d70:	27bdfff0 	addiu	sp,sp,-16
a0805d74:	afbe000c 	sw	s8,12(sp)
a0805d78:	03a0f021 	move	s8,sp
a0805d7c:	afc40010 	sw	a0,16(s8)
a0805d80:	afc00000 	sw	zero,0(s8)
a0805d84:	08201766 	j	a0805d98 <mini_strlen+0x28>
a0805d88:	00000000 	nop
a0805d8c:	8fc20000 	lw	v0,0(s8)
a0805d90:	24420001 	addiu	v0,v0,1
a0805d94:	afc20000 	sw	v0,0(s8)
a0805d98:	8fc30010 	lw	v1,16(s8)
a0805d9c:	8fc20000 	lw	v0,0(s8)
a0805da0:	00621021 	addu	v0,v1,v0
a0805da4:	80420000 	lb	v0,0(v0)
a0805da8:	1440fff8 	bnez	v0,a0805d8c <mini_strlen+0x1c>
a0805dac:	00000000 	nop
a0805db0:	8fc20000 	lw	v0,0(s8)
a0805db4:	03c0e821 	move	sp,s8
a0805db8:	8fbe000c 	lw	s8,12(sp)
a0805dbc:	27bd0010 	addiu	sp,sp,16
a0805dc0:	03e00008 	jr	ra
a0805dc4:	00000000 	nop

a0805dc8 <mini_itoa>:
a0805dc8:	27bdffc8 	addiu	sp,sp,-56
a0805dcc:	afbe0034 	sw	s8,52(sp)
a0805dd0:	03a0f021 	move	s8,sp
a0805dd4:	afc40038 	sw	a0,56(s8)
a0805dd8:	afc5003c 	sw	a1,60(s8)
a0805ddc:	afc60040 	sw	a2,64(s8)
a0805de0:	afc70044 	sw	a3,68(s8)
a0805de4:	8fc20048 	lw	v0,72(s8)
a0805de8:	afc20014 	sw	v0,20(s8)
a0805dec:	afc00010 	sw	zero,16(s8)
a0805df0:	8fc2003c 	lw	v0,60(s8)
a0805df4:	2c420011 	sltiu	v0,v0,17
a0805df8:	14400004 	bnez	v0,a0805e0c <mini_itoa+0x44>
a0805dfc:	00000000 	nop
a0805e00:	afc00020 	sw	zero,32(s8)
a0805e04:	0820180c 	j	a0806030 <mini_itoa+0x268>
a0805e08:	00000000 	nop
a0805e0c:	8fc20038 	lw	v0,56(s8)
a0805e10:	04410009 	bgez	v0,a0805e38 <mini_itoa+0x70>
a0805e14:	00000000 	nop
a0805e18:	8fc20044 	lw	v0,68(s8)
a0805e1c:	14400006 	bnez	v0,a0805e38 <mini_itoa+0x70>
a0805e20:	00000000 	nop
a0805e24:	24020001 	li	v0,1
a0805e28:	afc20010 	sw	v0,16(s8)
a0805e2c:	8fc20038 	lw	v0,56(s8)
a0805e30:	00021023 	negu	v0,v0
a0805e34:	afc20038 	sw	v0,56(s8)
a0805e38:	8fc30038 	lw	v1,56(s8)
a0805e3c:	8fc2003c 	lw	v0,60(s8)
a0805e40:	0062001b 	divu	zero,v1,v0
a0805e44:	004001f4 	teq	v0,zero,0x7
a0805e48:	00001010 	mfhi	v0
a0805e4c:	afc20004 	sw	v0,4(s8)
a0805e50:	8fc20004 	lw	v0,4(s8)
a0805e54:	2842000a 	slti	v0,v0,10
a0805e58:	1040000a 	beqz	v0,a0805e84 <mini_itoa+0xbc>
a0805e5c:	00000000 	nop
a0805e60:	8fc20004 	lw	v0,4(s8)
a0805e64:	304200ff 	andi	v0,v0,0xff
a0805e68:	24420030 	addiu	v0,v0,48
a0805e6c:	304200ff 	andi	v0,v0,0xff
a0805e70:	00021600 	sll	v0,v0,0x18
a0805e74:	00021603 	sra	v0,v0,0x18
a0805e78:	afc2001c 	sw	v0,28(s8)
a0805e7c:	082017b4 	j	a0805ed0 <mini_itoa+0x108>
a0805e80:	00000000 	nop
a0805e84:	8fc20040 	lw	v0,64(s8)
a0805e88:	10400005 	beqz	v0,a0805ea0 <mini_itoa+0xd8>
a0805e8c:	00000000 	nop
a0805e90:	24020041 	li	v0,65
a0805e94:	afc20018 	sw	v0,24(s8)
a0805e98:	082017aa 	j	a0805ea8 <mini_itoa+0xe0>
a0805e9c:	00000000 	nop
a0805ea0:	24030061 	li	v1,97
a0805ea4:	afc30018 	sw	v1,24(s8)
a0805ea8:	8fc20004 	lw	v0,4(s8)
a0805eac:	304200ff 	andi	v0,v0,0xff
a0805eb0:	8fc40018 	lw	a0,24(s8)
a0805eb4:	00821021 	addu	v0,a0,v0
a0805eb8:	304200ff 	andi	v0,v0,0xff
a0805ebc:	2442fff6 	addiu	v0,v0,-10
a0805ec0:	304200ff 	andi	v0,v0,0xff
a0805ec4:	00021600 	sll	v0,v0,0x18
a0805ec8:	00021603 	sra	v0,v0,0x18
a0805ecc:	afc2001c 	sw	v0,28(s8)
a0805ed0:	8fc20014 	lw	v0,20(s8)
a0805ed4:	8fc3001c 	lw	v1,28(s8)
a0805ed8:	a0430000 	sb	v1,0(v0)
a0805edc:	8fc20014 	lw	v0,20(s8)
a0805ee0:	24420001 	addiu	v0,v0,1
a0805ee4:	afc20014 	sw	v0,20(s8)
a0805ee8:	8fc30038 	lw	v1,56(s8)
a0805eec:	8fc2003c 	lw	v0,60(s8)
a0805ef0:	0062001b 	divu	zero,v1,v0
a0805ef4:	004001f4 	teq	v0,zero,0x7
a0805ef8:	00001012 	mflo	v0
a0805efc:	afc20038 	sw	v0,56(s8)
a0805f00:	8fc20038 	lw	v0,56(s8)
a0805f04:	1c40ffcc 	bgtz	v0,a0805e38 <mini_itoa+0x70>
a0805f08:	00000000 	nop
a0805f0c:	8fc20014 	lw	v0,20(s8)
a0805f10:	8fc30048 	lw	v1,72(s8)
a0805f14:	00431023 	subu	v0,v0,v1
a0805f18:	afc2000c 	sw	v0,12(s8)
a0805f1c:	082017d2 	j	a0805f48 <mini_itoa+0x180>
a0805f20:	00000000 	nop
a0805f24:	8fc30014 	lw	v1,20(s8)
a0805f28:	24020030 	li	v0,48
a0805f2c:	a0620000 	sb	v0,0(v1)
a0805f30:	8fc20014 	lw	v0,20(s8)
a0805f34:	24420001 	addiu	v0,v0,1
a0805f38:	afc20014 	sw	v0,20(s8)
a0805f3c:	8fc2000c 	lw	v0,12(s8)
a0805f40:	24420001 	addiu	v0,v0,1
a0805f44:	afc2000c 	sw	v0,12(s8)
a0805f48:	8fc2000c 	lw	v0,12(s8)
a0805f4c:	8fc3004c 	lw	v1,76(s8)
a0805f50:	0043102b 	sltu	v0,v0,v1
a0805f54:	1440fff3 	bnez	v0,a0805f24 <mini_itoa+0x15c>
a0805f58:	00000000 	nop
a0805f5c:	8fc20010 	lw	v0,16(s8)
a0805f60:	10400007 	beqz	v0,a0805f80 <mini_itoa+0x1b8>
a0805f64:	00000000 	nop
a0805f68:	8fc30014 	lw	v1,20(s8)
a0805f6c:	2402002d 	li	v0,45
a0805f70:	a0620000 	sb	v0,0(v1)
a0805f74:	8fc20014 	lw	v0,20(s8)
a0805f78:	24420001 	addiu	v0,v0,1
a0805f7c:	afc20014 	sw	v0,20(s8)
a0805f80:	8fc20014 	lw	v0,20(s8)
a0805f84:	a0400000 	sb	zero,0(v0)
a0805f88:	8fc30014 	lw	v1,20(s8)
a0805f8c:	8fc20048 	lw	v0,72(s8)
a0805f90:	00621023 	subu	v0,v1,v0
a0805f94:	afc20008 	sw	v0,8(s8)
a0805f98:	afc0000c 	sw	zero,12(s8)
a0805f9c:	08201804 	j	a0806010 <mini_itoa+0x248>
a0805fa0:	00000000 	nop
a0805fa4:	8fc30048 	lw	v1,72(s8)
a0805fa8:	8fc2000c 	lw	v0,12(s8)
a0805fac:	00621021 	addu	v0,v1,v0
a0805fb0:	90420000 	lbu	v0,0(v0)
a0805fb4:	a3c20000 	sb	v0,0(s8)
a0805fb8:	8fc30048 	lw	v1,72(s8)
a0805fbc:	8fc2000c 	lw	v0,12(s8)
a0805fc0:	00622021 	addu	a0,v1,v0
a0805fc4:	8fc30008 	lw	v1,8(s8)
a0805fc8:	8fc2000c 	lw	v0,12(s8)
a0805fcc:	00621023 	subu	v0,v1,v0
a0805fd0:	2443ffff 	addiu	v1,v0,-1
a0805fd4:	8fc20048 	lw	v0,72(s8)
a0805fd8:	00431021 	addu	v0,v0,v1
a0805fdc:	80420000 	lb	v0,0(v0)
a0805fe0:	a0820000 	sb	v0,0(a0)
a0805fe4:	8fc30008 	lw	v1,8(s8)
a0805fe8:	8fc2000c 	lw	v0,12(s8)
a0805fec:	00621023 	subu	v0,v1,v0
a0805ff0:	2443ffff 	addiu	v1,v0,-1
a0805ff4:	8fc20048 	lw	v0,72(s8)
a0805ff8:	00431821 	addu	v1,v0,v1
a0805ffc:	93c20000 	lbu	v0,0(s8)
a0806000:	a0620000 	sb	v0,0(v1)
a0806004:	8fc2000c 	lw	v0,12(s8)
a0806008:	24420001 	addiu	v0,v0,1
a080600c:	afc2000c 	sw	v0,12(s8)
a0806010:	8fc20008 	lw	v0,8(s8)
a0806014:	00021842 	srl	v1,v0,0x1
a0806018:	8fc2000c 	lw	v0,12(s8)
a080601c:	0043102b 	sltu	v0,v0,v1
a0806020:	1440ffe0 	bnez	v0,a0805fa4 <mini_itoa+0x1dc>
a0806024:	00000000 	nop
a0806028:	8fc20008 	lw	v0,8(s8)
a080602c:	afc20020 	sw	v0,32(s8)
a0806030:	8fc20020 	lw	v0,32(s8)
a0806034:	03c0e821 	move	sp,s8
a0806038:	8fbe0034 	lw	s8,52(sp)
a080603c:	27bd0038 	addiu	sp,sp,56
a0806040:	03e00008 	jr	ra
a0806044:	00000000 	nop

a0806048 <_putc>:
a0806048:	27bdfff0 	addiu	sp,sp,-16
a080604c:	afbe000c 	sw	s8,12(sp)
a0806050:	03a0f021 	move	s8,sp
a0806054:	afc40010 	sw	a0,16(s8)
a0806058:	afc50014 	sw	a1,20(s8)
a080605c:	8fc20014 	lw	v0,20(s8)
a0806060:	8c420004 	lw	v0,4(v0)
a0806064:	00401821 	move	v1,v0
a0806068:	8fc20014 	lw	v0,20(s8)
a080606c:	8c420000 	lw	v0,0(v0)
a0806070:	00621023 	subu	v0,v1,v0
a0806074:	24420001 	addiu	v0,v0,1
a0806078:	00401821 	move	v1,v0
a080607c:	8fc20014 	lw	v0,20(s8)
a0806080:	8c420008 	lw	v0,8(v0)
a0806084:	0062102b 	sltu	v0,v1,v0
a0806088:	14400004 	bnez	v0,a080609c <_putc+0x54>
a080608c:	00000000 	nop
a0806090:	afc00000 	sw	zero,0(s8)
a0806094:	08201835 	j	a08060d4 <_putc+0x8c>
a0806098:	00000000 	nop
a080609c:	8fc20014 	lw	v0,20(s8)
a08060a0:	8c430004 	lw	v1,4(v0)
a08060a4:	8fc20010 	lw	v0,16(s8)
a08060a8:	00021600 	sll	v0,v0,0x18
a08060ac:	00021603 	sra	v0,v0,0x18
a08060b0:	a0620000 	sb	v0,0(v1)
a08060b4:	24630001 	addiu	v1,v1,1
a08060b8:	8fc20014 	lw	v0,20(s8)
a08060bc:	ac430004 	sw	v1,4(v0)
a08060c0:	8fc20014 	lw	v0,20(s8)
a08060c4:	8c420004 	lw	v0,4(v0)
a08060c8:	a0400000 	sb	zero,0(v0)
a08060cc:	24020001 	li	v0,1
a08060d0:	afc20000 	sw	v0,0(s8)
a08060d4:	8fc20000 	lw	v0,0(s8)
a08060d8:	03c0e821 	move	sp,s8
a08060dc:	8fbe000c 	lw	s8,12(sp)
a08060e0:	27bd0010 	addiu	sp,sp,16
a08060e4:	03e00008 	jr	ra
a08060e8:	00000000 	nop

a08060ec <_puts>:
a08060ec:	27bdfff0 	addiu	sp,sp,-16
a08060f0:	afbe000c 	sw	s8,12(sp)
a08060f4:	03a0f021 	move	s8,sp
a08060f8:	afc40010 	sw	a0,16(s8)
a08060fc:	afc50014 	sw	a1,20(s8)
a0806100:	afc60018 	sw	a2,24(s8)
a0806104:	8fc20018 	lw	v0,24(s8)
a0806108:	8c440008 	lw	a0,8(v0)
a080610c:	8fc20018 	lw	v0,24(s8)
a0806110:	8c420000 	lw	v0,0(v0)
a0806114:	00401821 	move	v1,v0
a0806118:	8fc20018 	lw	v0,24(s8)
a080611c:	8c420004 	lw	v0,4(v0)
a0806120:	00621023 	subu	v0,v1,v0
a0806124:	00821021 	addu	v0,a0,v0
a0806128:	2443ffff 	addiu	v1,v0,-1
a080612c:	8fc20014 	lw	v0,20(s8)
a0806130:	0062102b 	sltu	v0,v1,v0
a0806134:	1040000c 	beqz	v0,a0806168 <_puts+0x7c>
a0806138:	00000000 	nop
a080613c:	8fc20018 	lw	v0,24(s8)
a0806140:	8c440008 	lw	a0,8(v0)
a0806144:	8fc20018 	lw	v0,24(s8)
a0806148:	8c420000 	lw	v0,0(v0)
a080614c:	00401821 	move	v1,v0
a0806150:	8fc20018 	lw	v0,24(s8)
a0806154:	8c420004 	lw	v0,4(v0)
a0806158:	00621023 	subu	v0,v1,v0
a080615c:	00821021 	addu	v0,a0,v0
a0806160:	2442ffff 	addiu	v0,v0,-1
a0806164:	afc20014 	sw	v0,20(s8)
a0806168:	afc00000 	sw	zero,0(s8)
a080616c:	0820186a 	j	a08061a8 <_puts+0xbc>
a0806170:	00000000 	nop
a0806174:	8fc20018 	lw	v0,24(s8)
a0806178:	8c440004 	lw	a0,4(v0)
a080617c:	8fc30010 	lw	v1,16(s8)
a0806180:	8fc20000 	lw	v0,0(s8)
a0806184:	00621021 	addu	v0,v1,v0
a0806188:	80420000 	lb	v0,0(v0)
a080618c:	a0820000 	sb	v0,0(a0)
a0806190:	24830001 	addiu	v1,a0,1
a0806194:	8fc20018 	lw	v0,24(s8)
a0806198:	ac430004 	sw	v1,4(v0)
a080619c:	8fc20000 	lw	v0,0(s8)
a08061a0:	24420001 	addiu	v0,v0,1
a08061a4:	afc20000 	sw	v0,0(s8)
a08061a8:	8fc20000 	lw	v0,0(s8)
a08061ac:	8fc30014 	lw	v1,20(s8)
a08061b0:	0043102b 	sltu	v0,v0,v1
a08061b4:	1440ffef 	bnez	v0,a0806174 <_puts+0x88>
a08061b8:	00000000 	nop
a08061bc:	8fc20018 	lw	v0,24(s8)
a08061c0:	8c420004 	lw	v0,4(v0)
a08061c4:	a0400000 	sb	zero,0(v0)
a08061c8:	8fc20014 	lw	v0,20(s8)
a08061cc:	03c0e821 	move	sp,s8
a08061d0:	8fbe000c 	lw	s8,12(sp)
a08061d4:	27bd0010 	addiu	sp,sp,16
a08061d8:	03e00008 	jr	ra
a08061dc:	00000000 	nop

a08061e0 <mini_vsnprintf>:
a08061e0:	27bdffa8 	addiu	sp,sp,-88
a08061e4:	afbf0054 	sw	ra,84(sp)
a08061e8:	afbe0050 	sw	s8,80(sp)
a08061ec:	03a0f021 	move	s8,sp
a08061f0:	afc40058 	sw	a0,88(s8)
a08061f4:	afc5005c 	sw	a1,92(s8)
a08061f8:	afc60060 	sw	a2,96(s8)
a08061fc:	afc70064 	sw	a3,100(s8)
a0806200:	8fc20058 	lw	v0,88(s8)
a0806204:	afc20024 	sw	v0,36(s8)
a0806208:	8fc20058 	lw	v0,88(s8)
a080620c:	afc20028 	sw	v0,40(s8)
a0806210:	8fc2005c 	lw	v0,92(s8)
a0806214:	afc2002c 	sw	v0,44(s8)
a0806218:	08201944 	j	a0806510 <mini_vsnprintf+0x330>
a080621c:	00000000 	nop
a0806220:	8fc20028 	lw	v0,40(s8)
a0806224:	00401821 	move	v1,v0
a0806228:	8fc20024 	lw	v0,36(s8)
a080622c:	00621023 	subu	v0,v1,v0
a0806230:	24420001 	addiu	v0,v0,1
a0806234:	00401821 	move	v1,v0
a0806238:	8fc2002c 	lw	v0,44(s8)
a080623c:	0062102b 	sltu	v0,v1,v0
a0806240:	104000be 	beqz	v0,a080653c <mini_vsnprintf+0x35c>
a0806244:	00000000 	nop
a0806248:	83c30021 	lb	v1,33(s8)
a080624c:	24020025 	li	v0,37
a0806250:	10620009 	beq	v1,v0,a0806278 <mini_vsnprintf+0x98>
a0806254:	00000000 	nop
a0806258:	83c20021 	lb	v0,33(s8)
a080625c:	27c30024 	addiu	v1,s8,36
a0806260:	00402021 	move	a0,v0
a0806264:	00602821 	move	a1,v1
a0806268:	0c201812 	jal	a0806048 <_putc>
a080626c:	00000000 	nop
a0806270:	08201944 	j	a0806510 <mini_vsnprintf+0x330>
a0806274:	00000000 	nop
a0806278:	a3c00020 	sb	zero,32(s8)
a080627c:	8fc20060 	lw	v0,96(s8)
a0806280:	90420000 	lbu	v0,0(v0)
a0806284:	a3c20021 	sb	v0,33(s8)
a0806288:	8fc20060 	lw	v0,96(s8)
a080628c:	24420001 	addiu	v0,v0,1
a0806290:	afc20060 	sw	v0,96(s8)
a0806294:	83c30021 	lb	v1,33(s8)
a0806298:	24020030 	li	v0,48
a080629c:	1462001c 	bne	v1,v0,a0806310 <mini_vsnprintf+0x130>
a08062a0:	00000000 	nop
a08062a4:	8fc20060 	lw	v0,96(s8)
a08062a8:	90420000 	lbu	v0,0(v0)
a08062ac:	a3c20021 	sb	v0,33(s8)
a08062b0:	8fc20060 	lw	v0,96(s8)
a08062b4:	24420001 	addiu	v0,v0,1
a08062b8:	afc20060 	sw	v0,96(s8)
a08062bc:	83c20021 	lb	v0,33(s8)
a08062c0:	1040009e 	beqz	v0,a080653c <mini_vsnprintf+0x35c>
a08062c4:	00000000 	nop
a08062c8:	83c20021 	lb	v0,33(s8)
a08062cc:	28420030 	slti	v0,v0,48
a08062d0:	14400009 	bnez	v0,a08062f8 <mini_vsnprintf+0x118>
a08062d4:	00000000 	nop
a08062d8:	83c20021 	lb	v0,33(s8)
a08062dc:	2842003a 	slti	v0,v0,58
a08062e0:	10400005 	beqz	v0,a08062f8 <mini_vsnprintf+0x118>
a08062e4:	00000000 	nop
a08062e8:	93c20021 	lbu	v0,33(s8)
a08062ec:	2442ffd0 	addiu	v0,v0,-48
a08062f0:	304200ff 	andi	v0,v0,0xff
a08062f4:	a3c20020 	sb	v0,32(s8)
a08062f8:	8fc20060 	lw	v0,96(s8)
a08062fc:	90420000 	lbu	v0,0(v0)
a0806300:	a3c20021 	sb	v0,33(s8)
a0806304:	8fc20060 	lw	v0,96(s8)
a0806308:	24420001 	addiu	v0,v0,1
a080630c:	afc20060 	sw	v0,96(s8)
a0806310:	83c20021 	lb	v0,33(s8)
a0806314:	afc20048 	sw	v0,72(s8)
a0806318:	24020064 	li	v0,100
a080631c:	8fc30048 	lw	v1,72(s8)
a0806320:	10620020 	beq	v1,v0,a08063a4 <mini_vsnprintf+0x1c4>
a0806324:	00000000 	nop
a0806328:	8fc30048 	lw	v1,72(s8)
a080632c:	28620065 	slti	v0,v1,101
a0806330:	1040000e 	beqz	v0,a080636c <mini_vsnprintf+0x18c>
a0806334:	00000000 	nop
a0806338:	24020058 	li	v0,88
a080633c:	8fc30048 	lw	v1,72(s8)
a0806340:	10620033 	beq	v1,v0,a0806410 <mini_vsnprintf+0x230>
a0806344:	00000000 	nop
a0806348:	24020063 	li	v0,99
a080634c:	8fc30048 	lw	v1,72(s8)
a0806350:	1062004a 	beq	v1,v0,a080647c <mini_vsnprintf+0x29c>
a0806354:	00000000 	nop
a0806358:	8fc20048 	lw	v0,72(s8)
a080635c:	10400077 	beqz	v0,a080653c <mini_vsnprintf+0x35c>
a0806360:	00000000 	nop
a0806364:	0820193e 	j	a08064f8 <mini_vsnprintf+0x318>
a0806368:	00000000 	nop
a080636c:	24020075 	li	v0,117
a0806370:	8fc30048 	lw	v1,72(s8)
a0806374:	1062000b 	beq	v1,v0,a08063a4 <mini_vsnprintf+0x1c4>
a0806378:	00000000 	nop
a080637c:	24020078 	li	v0,120
a0806380:	8fc30048 	lw	v1,72(s8)
a0806384:	10620022 	beq	v1,v0,a0806410 <mini_vsnprintf+0x230>
a0806388:	00000000 	nop
a080638c:	24020073 	li	v0,115
a0806390:	8fc30048 	lw	v1,72(s8)
a0806394:	10620047 	beq	v1,v0,a08064b4 <mini_vsnprintf+0x2d4>
a0806398:	00000000 	nop
a080639c:	0820193e 	j	a08064f8 <mini_vsnprintf+0x318>
a08063a0:	00000000 	nop
a08063a4:	8fc30064 	lw	v1,100(s8)
a08063a8:	24620004 	addiu	v0,v1,4
a08063ac:	afc20064 	sw	v0,100(s8)
a08063b0:	00601021 	move	v0,v1
a08063b4:	8c420000 	lw	v0,0(v0)
a08063b8:	00402021 	move	a0,v0
a08063bc:	83c20021 	lb	v0,33(s8)
a08063c0:	38420075 	xori	v0,v0,0x75
a08063c4:	2c470001 	sltiu	a3,v0,1
a08063c8:	83c30020 	lb	v1,32(s8)
a08063cc:	27c20030 	addiu	v0,s8,48
a08063d0:	afa20010 	sw	v0,16(sp)
a08063d4:	afa30014 	sw	v1,20(sp)
a08063d8:	2405000a 	li	a1,10
a08063dc:	00003021 	move	a2,zero
a08063e0:	0c201772 	jal	a0805dc8 <mini_itoa>
a08063e4:	00000000 	nop
a08063e8:	afc20018 	sw	v0,24(s8)
a08063ec:	27c20030 	addiu	v0,s8,48
a08063f0:	27c30024 	addiu	v1,s8,36
a08063f4:	00402021 	move	a0,v0
a08063f8:	8fc50018 	lw	a1,24(s8)
a08063fc:	00603021 	move	a2,v1
a0806400:	0c20183b 	jal	a08060ec <_puts>
a0806404:	00000000 	nop
a0806408:	08201944 	j	a0806510 <mini_vsnprintf+0x330>
a080640c:	00000000 	nop
a0806410:	8fc30064 	lw	v1,100(s8)
a0806414:	24620004 	addiu	v0,v1,4
a0806418:	afc20064 	sw	v0,100(s8)
a080641c:	00601021 	move	v0,v1
a0806420:	8c420000 	lw	v0,0(v0)
a0806424:	00402021 	move	a0,v0
a0806428:	83c20021 	lb	v0,33(s8)
a080642c:	38420058 	xori	v0,v0,0x58
a0806430:	2c460001 	sltiu	a2,v0,1
a0806434:	83c30020 	lb	v1,32(s8)
a0806438:	27c20030 	addiu	v0,s8,48
a080643c:	afa20010 	sw	v0,16(sp)
a0806440:	afa30014 	sw	v1,20(sp)
a0806444:	24050010 	li	a1,16
a0806448:	24070001 	li	a3,1
a080644c:	0c201772 	jal	a0805dc8 <mini_itoa>
a0806450:	00000000 	nop
a0806454:	afc20018 	sw	v0,24(s8)
a0806458:	27c20030 	addiu	v0,s8,48
a080645c:	27c30024 	addiu	v1,s8,36
a0806460:	00402021 	move	a0,v0
a0806464:	8fc50018 	lw	a1,24(s8)
a0806468:	00603021 	move	a2,v1
a080646c:	0c20183b 	jal	a08060ec <_puts>
a0806470:	00000000 	nop
a0806474:	08201944 	j	a0806510 <mini_vsnprintf+0x330>
a0806478:	00000000 	nop
a080647c:	8fc30064 	lw	v1,100(s8)
a0806480:	24620004 	addiu	v0,v1,4
a0806484:	afc20064 	sw	v0,100(s8)
a0806488:	00601021 	move	v0,v1
a080648c:	8c420000 	lw	v0,0(v0)
a0806490:	00021600 	sll	v0,v0,0x18
a0806494:	00021603 	sra	v0,v0,0x18
a0806498:	27c30024 	addiu	v1,s8,36
a080649c:	00402021 	move	a0,v0
a08064a0:	00602821 	move	a1,v1
a08064a4:	0c201812 	jal	a0806048 <_putc>
a08064a8:	00000000 	nop
a08064ac:	08201944 	j	a0806510 <mini_vsnprintf+0x330>
a08064b0:	00000000 	nop
a08064b4:	8fc30064 	lw	v1,100(s8)
a08064b8:	24620004 	addiu	v0,v1,4
a08064bc:	afc20064 	sw	v0,100(s8)
a08064c0:	00601021 	move	v0,v1
a08064c4:	8c420000 	lw	v0,0(v0)
a08064c8:	afc2001c 	sw	v0,28(s8)
a08064cc:	8fc4001c 	lw	a0,28(s8)
a08064d0:	0c20175c 	jal	a0805d70 <mini_strlen>
a08064d4:	00000000 	nop
a08064d8:	27c30024 	addiu	v1,s8,36
a08064dc:	8fc4001c 	lw	a0,28(s8)
a08064e0:	00402821 	move	a1,v0
a08064e4:	00603021 	move	a2,v1
a08064e8:	0c20183b 	jal	a08060ec <_puts>
a08064ec:	00000000 	nop
a08064f0:	08201944 	j	a0806510 <mini_vsnprintf+0x330>
a08064f4:	00000000 	nop
a08064f8:	83c20021 	lb	v0,33(s8)
a08064fc:	27c30024 	addiu	v1,s8,36
a0806500:	00402021 	move	a0,v0
a0806504:	00602821 	move	a1,v1
a0806508:	0c201812 	jal	a0806048 <_putc>
a080650c:	00000000 	nop
a0806510:	8fc20060 	lw	v0,96(s8)
a0806514:	90420000 	lbu	v0,0(v0)
a0806518:	a3c20021 	sb	v0,33(s8)
a080651c:	83c20021 	lb	v0,33(s8)
a0806520:	0002102b 	sltu	v0,zero,v0
a0806524:	304300ff 	andi	v1,v0,0xff
a0806528:	8fc20060 	lw	v0,96(s8)
a080652c:	24420001 	addiu	v0,v0,1
a0806530:	afc20060 	sw	v0,96(s8)
a0806534:	1460ff3a 	bnez	v1,a0806220 <mini_vsnprintf+0x40>
a0806538:	00000000 	nop
a080653c:	8fc20028 	lw	v0,40(s8)
a0806540:	00401821 	move	v1,v0
a0806544:	8fc20024 	lw	v0,36(s8)
a0806548:	00621023 	subu	v0,v1,v0
a080654c:	03c0e821 	move	sp,s8
a0806550:	8fbf0054 	lw	ra,84(sp)
a0806554:	8fbe0050 	lw	s8,80(sp)
a0806558:	27bd0058 	addiu	sp,sp,88
a080655c:	03e00008 	jr	ra
a0806560:	00000000 	nop

a0806564 <printk>:
a0806564:	27bdfee0 	addiu	sp,sp,-288
a0806568:	afbf011c 	sw	ra,284(sp)
a080656c:	afbe0118 	sw	s8,280(sp)
a0806570:	03a0f021 	move	s8,sp
a0806574:	afc50124 	sw	a1,292(s8)
a0806578:	afc60128 	sw	a2,296(s8)
a080657c:	afc7012c 	sw	a3,300(s8)
a0806580:	afc40120 	sw	a0,288(s8)
a0806584:	27c20124 	addiu	v0,s8,292
a0806588:	afc20014 	sw	v0,20(s8)
a080658c:	8fc30014 	lw	v1,20(s8)
a0806590:	27c20018 	addiu	v0,s8,24
a0806594:	00402021 	move	a0,v0
a0806598:	24050100 	li	a1,256
a080659c:	8fc60120 	lw	a2,288(s8)
a08065a0:	00603821 	move	a3,v1
a08065a4:	0c201878 	jal	a08061e0 <mini_vsnprintf>
a08065a8:	00000000 	nop
a08065ac:	afc20010 	sw	v0,16(s8)
a08065b0:	8fc30010 	lw	v1,16(s8)
a08065b4:	27c20010 	addiu	v0,s8,16
a08065b8:	00431021 	addu	v0,v0,v1
a08065bc:	a0400008 	sb	zero,8(v0)
a08065c0:	27c20018 	addiu	v0,s8,24
a08065c4:	00402021 	move	a0,v0
a08065c8:	0c200278 	jal	a08009e0 <port_write>
a08065cc:	00000000 	nop
a08065d0:	8fc20010 	lw	v0,16(s8)
a08065d4:	03c0e821 	move	sp,s8
a08065d8:	8fbf011c 	lw	ra,284(sp)
a08065dc:	8fbe0118 	lw	s8,280(sp)
a08065e0:	27bd0120 	addiu	sp,sp,288
a08065e4:	03e00008 	jr	ra
a08065e8:	00000000 	nop

a08065ec <printf>:
a08065ec:	27bdfee0 	addiu	sp,sp,-288
a08065f0:	afbf011c 	sw	ra,284(sp)
a08065f4:	afbe0118 	sw	s8,280(sp)
a08065f8:	03a0f021 	move	s8,sp
a08065fc:	afc50124 	sw	a1,292(s8)
a0806600:	afc60128 	sw	a2,296(s8)
a0806604:	afc7012c 	sw	a3,300(s8)
a0806608:	afc40120 	sw	a0,288(s8)
a080660c:	27c20124 	addiu	v0,s8,292
a0806610:	afc20014 	sw	v0,20(s8)
a0806614:	8fc30014 	lw	v1,20(s8)
a0806618:	27c20018 	addiu	v0,s8,24
a080661c:	00402021 	move	a0,v0
a0806620:	24050100 	li	a1,256
a0806624:	8fc60120 	lw	a2,288(s8)
a0806628:	00603821 	move	a3,v1
a080662c:	0c201878 	jal	a08061e0 <mini_vsnprintf>
a0806630:	00000000 	nop
a0806634:	afc20010 	sw	v0,16(s8)
a0806638:	8fc30010 	lw	v1,16(s8)
a080663c:	27c20010 	addiu	v0,s8,16
a0806640:	00431021 	addu	v0,v0,v1
a0806644:	a0400008 	sb	zero,8(v0)
a0806648:	27c20018 	addiu	v0,s8,24
a080664c:	00402021 	move	a0,v0
a0806650:	0c2012f5 	jal	a0804bd4 <sys_write>
a0806654:	00000000 	nop
a0806658:	8fc20010 	lw	v0,16(s8)
a080665c:	03c0e821 	move	sp,s8
a0806660:	8fbf011c 	lw	ra,284(sp)
a0806664:	8fbe0118 	lw	s8,280(sp)
a0806668:	27bd0120 	addiu	sp,sp,288
a080666c:	03e00008 	jr	ra
a0806670:	00000000 	nop
	...

a0806680 <disable_interrupt>:
a0806680:	27bdffe0 	addiu	sp,sp,-32
a0806684:	afbf001c 	sw	ra,28(sp)
a0806688:	afbe0018 	sw	s8,24(sp)
a080668c:	03a0f021 	move	s8,sp
a0806690:	0c20022f 	jal	a08008bc <get_cp0_status>
a0806694:	00000000 	nop
a0806698:	afc20010 	sw	v0,16(s8)
a080669c:	8fc30010 	lw	v1,16(s8)
a08066a0:	2402fffe 	li	v0,-2
a08066a4:	00621024 	and	v0,v1,v0
a08066a8:	afc20010 	sw	v0,16(s8)
a08066ac:	8fc40010 	lw	a0,16(s8)
a08066b0:	0c200241 	jal	a0800904 <set_cp0_status>
a08066b4:	00000000 	nop
a08066b8:	03c0e821 	move	sp,s8
a08066bc:	8fbf001c 	lw	ra,28(sp)
a08066c0:	8fbe0018 	lw	s8,24(sp)
a08066c4:	27bd0020 	addiu	sp,sp,32
a08066c8:	03e00008 	jr	ra
a08066cc:	00000000 	nop

a08066d0 <enable_interrupt>:
a08066d0:	27bdffe0 	addiu	sp,sp,-32
a08066d4:	afbf001c 	sw	ra,28(sp)
a08066d8:	afbe0018 	sw	s8,24(sp)
a08066dc:	03a0f021 	move	s8,sp
a08066e0:	0c20022f 	jal	a08008bc <get_cp0_status>
a08066e4:	00000000 	nop
a08066e8:	afc20010 	sw	v0,16(s8)
a08066ec:	8fc20010 	lw	v0,16(s8)
a08066f0:	34420001 	ori	v0,v0,0x1
a08066f4:	afc20010 	sw	v0,16(s8)
a08066f8:	8fc40010 	lw	a0,16(s8)
a08066fc:	0c200241 	jal	a0800904 <set_cp0_status>
a0806700:	00000000 	nop
a0806704:	03c0e821 	move	sp,s8
a0806708:	8fbf001c 	lw	ra,28(sp)
a080670c:	8fbe0018 	lw	s8,24(sp)
a0806710:	27bd0020 	addiu	sp,sp,32
a0806714:	03e00008 	jr	ra
a0806718:	00000000 	nop

a080671c <read_uart_ch>:
a080671c:	27bdffe8 	addiu	sp,sp,-24
a0806720:	afbe0014 	sw	s8,20(sp)
a0806724:	03a0f021 	move	s8,sp
a0806728:	a3c00008 	sb	zero,8(s8)
a080672c:	3c02bfe4 	lui	v0,0xbfe4
a0806730:	34428000 	ori	v0,v0,0x8000
a0806734:	afc20004 	sw	v0,4(s8)
a0806738:	3c02bfe4 	lui	v0,0xbfe4
a080673c:	34428005 	ori	v0,v0,0x8005
a0806740:	afc20000 	sw	v0,0(s8)
a0806744:	082019d6 	j	a0806758 <read_uart_ch+0x3c>
a0806748:	00000000 	nop
a080674c:	8fc20004 	lw	v0,4(s8)
a0806750:	90420000 	lbu	v0,0(v0)
a0806754:	a3c20008 	sb	v0,8(s8)
a0806758:	8fc20000 	lw	v0,0(s8)
a080675c:	90420000 	lbu	v0,0(v0)
a0806760:	30420001 	andi	v0,v0,0x1
a0806764:	304200ff 	andi	v0,v0,0xff
a0806768:	1440fff8 	bnez	v0,a080674c <read_uart_ch+0x30>
a080676c:	00000000 	nop
a0806770:	83c20008 	lb	v0,8(s8)
a0806774:	03c0e821 	move	sp,s8
a0806778:	8fbe0014 	lw	s8,20(sp)
a080677c:	27bd0018 	addiu	sp,sp,24
a0806780:	03e00008 	jr	ra
a0806784:	00000000 	nop

a0806788 <test_shell>:
a0806788:	27bdffc0 	addiu	sp,sp,-64
a080678c:	afbf003c 	sw	ra,60(sp)
a0806790:	afbe0038 	sw	s8,56(sp)
a0806794:	03a0f021 	move	s8,sp
a0806798:	a3c0001c 	sb	zero,28(s8)
a080679c:	afc00018 	sw	zero,24(s8)
a08067a0:	24020010 	li	v0,16
a08067a4:	afc20030 	sw	v0,48(s8)
a08067a8:	24040001 	li	a0,1
a08067ac:	2405000f 	li	a1,15
a08067b0:	0c201317 	jal	a0804c5c <sys_move_cursor>
a08067b4:	00000000 	nop
a08067b8:	3c02a081 	lui	v0,0xa081
a08067bc:	24449af0 	addiu	a0,v0,-25872
a08067c0:	0c20197b 	jal	a08065ec <printf>
a08067c4:	00000000 	nop
a08067c8:	24040001 	li	a0,1
a08067cc:	24050010 	li	a1,16
a08067d0:	0c201317 	jal	a0804c5c <sys_move_cursor>
a08067d4:	00000000 	nop
a08067d8:	3c02a081 	lui	v0,0xa081
a08067dc:	24449b20 	addiu	a0,v0,-25824
a08067e0:	0c20197b 	jal	a08065ec <printf>
a08067e4:	00000000 	nop
a08067e8:	0c2019a0 	jal	a0806680 <disable_interrupt>
a08067ec:	00000000 	nop
a08067f0:	0c2019c7 	jal	a080671c <read_uart_ch>
a08067f4:	00000000 	nop
a08067f8:	a3c2001c 	sb	v0,28(s8)
a08067fc:	0c2019b4 	jal	a08066d0 <enable_interrupt>
a0806800:	00000000 	nop
a0806804:	83c3001c 	lb	v1,28(s8)
a0806808:	3c02a081 	lui	v0,0xa081
a080680c:	24449b30 	addiu	a0,v0,-25808
a0806810:	00602821 	move	a1,v1
a0806814:	0c20197b 	jal	a08065ec <printf>
a0806818:	00000000 	nop
a080681c:	83c2001c 	lb	v0,28(s8)
a0806820:	1040fff1 	beqz	v0,a08067e8 <test_shell+0x60>
a0806824:	00000000 	nop
a0806828:	83c3001c 	lb	v1,28(s8)
a080682c:	2402000d 	li	v0,13
a0806830:	14620148 	bne	v1,v0,a0806d54 <test_shell+0x5cc>
a0806834:	00000000 	nop
a0806838:	8fc30018 	lw	v1,24(s8)
a080683c:	27c20010 	addiu	v0,s8,16
a0806840:	00431021 	addu	v0,v0,v1
a0806844:	a0400010 	sb	zero,16(v0)
a0806848:	27c20020 	addiu	v0,s8,32
a080684c:	00402021 	move	a0,v0
a0806850:	3c02a081 	lui	v0,0xa081
a0806854:	24459b34 	addiu	a1,v0,-25804
a0806858:	0c201704 	jal	a0805c10 <strcmp>
a080685c:	00000000 	nop
a0806860:	1440000f 	bnez	v0,a08068a0 <test_shell+0x118>
a0806864:	00000000 	nop
a0806868:	8fc20030 	lw	v0,48(s8)
a080686c:	24420001 	addiu	v0,v0,1
a0806870:	afc20030 	sw	v0,48(s8)
a0806874:	8fc20030 	lw	v0,48(s8)
a0806878:	24040001 	li	a0,1
a080687c:	00402821 	move	a1,v0
a0806880:	0c201317 	jal	a0804c5c <sys_move_cursor>
a0806884:	00000000 	nop
a0806888:	27c20030 	addiu	v0,s8,48
a080688c:	00402021 	move	a0,v0
a0806890:	0c20135f 	jal	a0804d7c <sys_ps>
a0806894:	00000000 	nop
a0806898:	08201b46 	j	a0806d18 <test_shell+0x590>
a080689c:	00000000 	nop
a08068a0:	27c20020 	addiu	v0,s8,32
a08068a4:	00402021 	move	a0,v0
a08068a8:	3c02a081 	lui	v0,0xa081
a08068ac:	24459b38 	addiu	a1,v0,-25800
a08068b0:	0c201704 	jal	a0805c10 <strcmp>
a08068b4:	00000000 	nop
a08068b8:	14400009 	bnez	v0,a08068e0 <test_shell+0x158>
a08068bc:	00000000 	nop
a08068c0:	24040010 	li	a0,16
a08068c4:	2405001d 	li	a1,29
a08068c8:	0c201371 	jal	a0804dc4 <sys_clear>
a08068cc:	00000000 	nop
a08068d0:	2402000f 	li	v0,15
a08068d4:	afc20030 	sw	v0,48(s8)
a08068d8:	08201b46 	j	a0806d18 <test_shell+0x590>
a08068dc:	00000000 	nop
a08068e0:	83c30020 	lb	v1,32(s8)
a08068e4:	24020065 	li	v0,101
a08068e8:	14620039 	bne	v1,v0,a08069d0 <test_shell+0x248>
a08068ec:	00000000 	nop
a08068f0:	83c30021 	lb	v1,33(s8)
a08068f4:	24020078 	li	v0,120
a08068f8:	14620035 	bne	v1,v0,a08069d0 <test_shell+0x248>
a08068fc:	00000000 	nop
a0806900:	83c30022 	lb	v1,34(s8)
a0806904:	24020065 	li	v0,101
a0806908:	14620031 	bne	v1,v0,a08069d0 <test_shell+0x248>
a080690c:	00000000 	nop
a0806910:	83c30023 	lb	v1,35(s8)
a0806914:	24020063 	li	v0,99
a0806918:	1462002d 	bne	v1,v0,a08069d0 <test_shell+0x248>
a080691c:	00000000 	nop
a0806920:	83c30024 	lb	v1,36(s8)
a0806924:	24020020 	li	v0,32
a0806928:	14620029 	bne	v1,v0,a08069d0 <test_shell+0x248>
a080692c:	00000000 	nop
a0806930:	83c20025 	lb	v0,37(s8)
a0806934:	28420030 	slti	v0,v0,48
a0806938:	14400025 	bnez	v0,a08069d0 <test_shell+0x248>
a080693c:	00000000 	nop
a0806940:	83c20025 	lb	v0,37(s8)
a0806944:	2842003a 	slti	v0,v0,58
a0806948:	10400021 	beqz	v0,a08069d0 <test_shell+0x248>
a080694c:	00000000 	nop
a0806950:	83c20026 	lb	v0,38(s8)
a0806954:	1440001e 	bnez	v0,a08069d0 <test_shell+0x248>
a0806958:	00000000 	nop
a080695c:	83c20025 	lb	v0,37(s8)
a0806960:	2442ffd0 	addiu	v0,v0,-48
a0806964:	afc20014 	sw	v0,20(s8)
a0806968:	8fc20014 	lw	v0,20(s8)
a080696c:	3c03a081 	lui	v1,0xa081
a0806970:	00022080 	sll	a0,v0,0x2
a0806974:	2462a4b4 	addiu	v0,v1,-23372
a0806978:	00821021 	addu	v0,a0,v0
a080697c:	8c420000 	lw	v0,0(v0)
a0806980:	00402021 	move	a0,v0
a0806984:	0c201393 	jal	a0804e4c <sys_spawn>
a0806988:	00000000 	nop
a080698c:	8fc20030 	lw	v0,48(s8)
a0806990:	24420001 	addiu	v0,v0,1
a0806994:	afc20030 	sw	v0,48(s8)
a0806998:	8fc20030 	lw	v0,48(s8)
a080699c:	24040001 	li	a0,1
a08069a0:	00402821 	move	a1,v0
a08069a4:	0c201317 	jal	a0804c5c <sys_move_cursor>
a08069a8:	00000000 	nop
a08069ac:	83c20025 	lb	v0,37(s8)
a08069b0:	00401821 	move	v1,v0
a08069b4:	3c02a081 	lui	v0,0xa081
a08069b8:	24449b40 	addiu	a0,v0,-25792
a08069bc:	00602821 	move	a1,v1
a08069c0:	0c20197b 	jal	a08065ec <printf>
a08069c4:	00000000 	nop
a08069c8:	08201b46 	j	a0806d18 <test_shell+0x590>
a08069cc:	00000000 	nop
a08069d0:	83c30020 	lb	v1,32(s8)
a08069d4:	24020065 	li	v0,101
a08069d8:	14620049 	bne	v1,v0,a0806b00 <test_shell+0x378>
a08069dc:	00000000 	nop
a08069e0:	83c30021 	lb	v1,33(s8)
a08069e4:	24020078 	li	v0,120
a08069e8:	14620045 	bne	v1,v0,a0806b00 <test_shell+0x378>
a08069ec:	00000000 	nop
a08069f0:	83c30022 	lb	v1,34(s8)
a08069f4:	24020065 	li	v0,101
a08069f8:	14620041 	bne	v1,v0,a0806b00 <test_shell+0x378>
a08069fc:	00000000 	nop
a0806a00:	83c30023 	lb	v1,35(s8)
a0806a04:	24020063 	li	v0,99
a0806a08:	1462003d 	bne	v1,v0,a0806b00 <test_shell+0x378>
a0806a0c:	00000000 	nop
a0806a10:	83c30024 	lb	v1,36(s8)
a0806a14:	24020020 	li	v0,32
a0806a18:	14620039 	bne	v1,v0,a0806b00 <test_shell+0x378>
a0806a1c:	00000000 	nop
a0806a20:	83c20025 	lb	v0,37(s8)
a0806a24:	28420030 	slti	v0,v0,48
a0806a28:	14400035 	bnez	v0,a0806b00 <test_shell+0x378>
a0806a2c:	00000000 	nop
a0806a30:	83c20025 	lb	v0,37(s8)
a0806a34:	2842003a 	slti	v0,v0,58
a0806a38:	10400031 	beqz	v0,a0806b00 <test_shell+0x378>
a0806a3c:	00000000 	nop
a0806a40:	83c20026 	lb	v0,38(s8)
a0806a44:	28420030 	slti	v0,v0,48
a0806a48:	1440002d 	bnez	v0,a0806b00 <test_shell+0x378>
a0806a4c:	00000000 	nop
a0806a50:	83c20025 	lb	v0,37(s8)
a0806a54:	28420037 	slti	v0,v0,55
a0806a58:	10400029 	beqz	v0,a0806b00 <test_shell+0x378>
a0806a5c:	00000000 	nop
a0806a60:	83c20027 	lb	v0,39(s8)
a0806a64:	14400026 	bnez	v0,a0806b00 <test_shell+0x378>
a0806a68:	00000000 	nop
a0806a6c:	83c20025 	lb	v0,37(s8)
a0806a70:	00021840 	sll	v1,v0,0x1
a0806a74:	00031080 	sll	v0,v1,0x2
a0806a78:	00621021 	addu	v0,v1,v0
a0806a7c:	2443fe20 	addiu	v1,v0,-480
a0806a80:	83c20026 	lb	v0,38(s8)
a0806a84:	00621021 	addu	v0,v1,v0
a0806a88:	2442ffd0 	addiu	v0,v0,-48
a0806a8c:	afc20010 	sw	v0,16(s8)
a0806a90:	8fc20010 	lw	v0,16(s8)
a0806a94:	3c03a081 	lui	v1,0xa081
a0806a98:	00022080 	sll	a0,v0,0x2
a0806a9c:	2462a4b4 	addiu	v0,v1,-23372
a0806aa0:	00821021 	addu	v0,a0,v0
a0806aa4:	8c420000 	lw	v0,0(v0)
a0806aa8:	00402021 	move	a0,v0
a0806aac:	0c201393 	jal	a0804e4c <sys_spawn>
a0806ab0:	00000000 	nop
a0806ab4:	8fc20030 	lw	v0,48(s8)
a0806ab8:	24420001 	addiu	v0,v0,1
a0806abc:	afc20030 	sw	v0,48(s8)
a0806ac0:	8fc20030 	lw	v0,48(s8)
a0806ac4:	24040001 	li	a0,1
a0806ac8:	00402821 	move	a1,v0
a0806acc:	0c201317 	jal	a0804c5c <sys_move_cursor>
a0806ad0:	00000000 	nop
a0806ad4:	83c20025 	lb	v0,37(s8)
a0806ad8:	00401821 	move	v1,v0
a0806adc:	83c20026 	lb	v0,38(s8)
a0806ae0:	00403021 	move	a2,v0
a0806ae4:	3c02a081 	lui	v0,0xa081
a0806ae8:	24449b54 	addiu	a0,v0,-25772
a0806aec:	00602821 	move	a1,v1
a0806af0:	0c20197b 	jal	a08065ec <printf>
a0806af4:	00000000 	nop
a0806af8:	08201b46 	j	a0806d18 <test_shell+0x590>
a0806afc:	00000000 	nop
a0806b00:	83c30020 	lb	v1,32(s8)
a0806b04:	2402006b 	li	v0,107
a0806b08:	14620032 	bne	v1,v0,a0806bd4 <test_shell+0x44c>
a0806b0c:	00000000 	nop
a0806b10:	83c30021 	lb	v1,33(s8)
a0806b14:	24020069 	li	v0,105
a0806b18:	1462002e 	bne	v1,v0,a0806bd4 <test_shell+0x44c>
a0806b1c:	00000000 	nop
a0806b20:	83c30022 	lb	v1,34(s8)
a0806b24:	2402006c 	li	v0,108
a0806b28:	1462002a 	bne	v1,v0,a0806bd4 <test_shell+0x44c>
a0806b2c:	00000000 	nop
a0806b30:	83c30023 	lb	v1,35(s8)
a0806b34:	2402006c 	li	v0,108
a0806b38:	14620026 	bne	v1,v0,a0806bd4 <test_shell+0x44c>
a0806b3c:	00000000 	nop
a0806b40:	83c30024 	lb	v1,36(s8)
a0806b44:	24020020 	li	v0,32
a0806b48:	14620022 	bne	v1,v0,a0806bd4 <test_shell+0x44c>
a0806b4c:	00000000 	nop
a0806b50:	83c20025 	lb	v0,37(s8)
a0806b54:	28420030 	slti	v0,v0,48
a0806b58:	1440001e 	bnez	v0,a0806bd4 <test_shell+0x44c>
a0806b5c:	00000000 	nop
a0806b60:	83c20025 	lb	v0,37(s8)
a0806b64:	2842003a 	slti	v0,v0,58
a0806b68:	1040001a 	beqz	v0,a0806bd4 <test_shell+0x44c>
a0806b6c:	00000000 	nop
a0806b70:	83c20026 	lb	v0,38(s8)
a0806b74:	14400017 	bnez	v0,a0806bd4 <test_shell+0x44c>
a0806b78:	00000000 	nop
a0806b7c:	83c20025 	lb	v0,37(s8)
a0806b80:	2442ffd0 	addiu	v0,v0,-48
a0806b84:	00402021 	move	a0,v0
a0806b88:	0c2013a5 	jal	a0804e94 <sys_kill>
a0806b8c:	00000000 	nop
a0806b90:	8fc20030 	lw	v0,48(s8)
a0806b94:	24420001 	addiu	v0,v0,1
a0806b98:	afc20030 	sw	v0,48(s8)
a0806b9c:	8fc20030 	lw	v0,48(s8)
a0806ba0:	24040001 	li	a0,1
a0806ba4:	00402821 	move	a1,v0
a0806ba8:	0c201317 	jal	a0804c5c <sys_move_cursor>
a0806bac:	00000000 	nop
a0806bb0:	83c20025 	lb	v0,37(s8)
a0806bb4:	00401821 	move	v1,v0
a0806bb8:	3c02a081 	lui	v0,0xa081
a0806bbc:	24449b68 	addiu	a0,v0,-25752
a0806bc0:	00602821 	move	a1,v1
a0806bc4:	0c20197b 	jal	a08065ec <printf>
a0806bc8:	00000000 	nop
a0806bcc:	08201b46 	j	a0806d18 <test_shell+0x590>
a0806bd0:	00000000 	nop
a0806bd4:	83c30020 	lb	v1,32(s8)
a0806bd8:	2402006b 	li	v0,107
a0806bdc:	14620042 	bne	v1,v0,a0806ce8 <test_shell+0x560>
a0806be0:	00000000 	nop
a0806be4:	83c30021 	lb	v1,33(s8)
a0806be8:	24020069 	li	v0,105
a0806bec:	1462003e 	bne	v1,v0,a0806ce8 <test_shell+0x560>
a0806bf0:	00000000 	nop
a0806bf4:	83c30022 	lb	v1,34(s8)
a0806bf8:	2402006c 	li	v0,108
a0806bfc:	1462003a 	bne	v1,v0,a0806ce8 <test_shell+0x560>
a0806c00:	00000000 	nop
a0806c04:	83c30023 	lb	v1,35(s8)
a0806c08:	2402006c 	li	v0,108
a0806c0c:	14620036 	bne	v1,v0,a0806ce8 <test_shell+0x560>
a0806c10:	00000000 	nop
a0806c14:	83c30024 	lb	v1,36(s8)
a0806c18:	24020020 	li	v0,32
a0806c1c:	14620032 	bne	v1,v0,a0806ce8 <test_shell+0x560>
a0806c20:	00000000 	nop
a0806c24:	83c20025 	lb	v0,37(s8)
a0806c28:	28420030 	slti	v0,v0,48
a0806c2c:	1440002e 	bnez	v0,a0806ce8 <test_shell+0x560>
a0806c30:	00000000 	nop
a0806c34:	83c20025 	lb	v0,37(s8)
a0806c38:	2842003a 	slti	v0,v0,58
a0806c3c:	1040002a 	beqz	v0,a0806ce8 <test_shell+0x560>
a0806c40:	00000000 	nop
a0806c44:	83c20026 	lb	v0,38(s8)
a0806c48:	28420030 	slti	v0,v0,48
a0806c4c:	14400026 	bnez	v0,a0806ce8 <test_shell+0x560>
a0806c50:	00000000 	nop
a0806c54:	83c20025 	lb	v0,37(s8)
a0806c58:	28420037 	slti	v0,v0,55
a0806c5c:	10400022 	beqz	v0,a0806ce8 <test_shell+0x560>
a0806c60:	00000000 	nop
a0806c64:	83c20027 	lb	v0,39(s8)
a0806c68:	1440001f 	bnez	v0,a0806ce8 <test_shell+0x560>
a0806c6c:	00000000 	nop
a0806c70:	83c20025 	lb	v0,37(s8)
a0806c74:	00021840 	sll	v1,v0,0x1
a0806c78:	00031080 	sll	v0,v1,0x2
a0806c7c:	00621021 	addu	v0,v1,v0
a0806c80:	2443fe20 	addiu	v1,v0,-480
a0806c84:	83c20026 	lb	v0,38(s8)
a0806c88:	00621021 	addu	v0,v1,v0
a0806c8c:	2442ffd0 	addiu	v0,v0,-48
a0806c90:	00402021 	move	a0,v0
a0806c94:	0c2013a5 	jal	a0804e94 <sys_kill>
a0806c98:	00000000 	nop
a0806c9c:	8fc20030 	lw	v0,48(s8)
a0806ca0:	24420001 	addiu	v0,v0,1
a0806ca4:	afc20030 	sw	v0,48(s8)
a0806ca8:	8fc20030 	lw	v0,48(s8)
a0806cac:	24040001 	li	a0,1
a0806cb0:	00402821 	move	a1,v0
a0806cb4:	0c201317 	jal	a0804c5c <sys_move_cursor>
a0806cb8:	00000000 	nop
a0806cbc:	83c20025 	lb	v0,37(s8)
a0806cc0:	00401821 	move	v1,v0
a0806cc4:	83c20026 	lb	v0,38(s8)
a0806cc8:	00403021 	move	a2,v0
a0806ccc:	3c02a081 	lui	v0,0xa081
a0806cd0:	24449b80 	addiu	a0,v0,-25728
a0806cd4:	00602821 	move	a1,v1
a0806cd8:	0c20197b 	jal	a08065ec <printf>
a0806cdc:	00000000 	nop
a0806ce0:	08201b46 	j	a0806d18 <test_shell+0x590>
a0806ce4:	00000000 	nop
a0806ce8:	8fc20030 	lw	v0,48(s8)
a0806cec:	24420001 	addiu	v0,v0,1
a0806cf0:	afc20030 	sw	v0,48(s8)
a0806cf4:	8fc20030 	lw	v0,48(s8)
a0806cf8:	24040001 	li	a0,1
a0806cfc:	00402821 	move	a1,v0
a0806d00:	0c201317 	jal	a0804c5c <sys_move_cursor>
a0806d04:	00000000 	nop
a0806d08:	3c02a081 	lui	v0,0xa081
a0806d0c:	24449b9c 	addiu	a0,v0,-25700
a0806d10:	0c20197b 	jal	a08065ec <printf>
a0806d14:	00000000 	nop
a0806d18:	afc00018 	sw	zero,24(s8)
a0806d1c:	8fc20030 	lw	v0,48(s8)
a0806d20:	24420001 	addiu	v0,v0,1
a0806d24:	afc20030 	sw	v0,48(s8)
a0806d28:	8fc20030 	lw	v0,48(s8)
a0806d2c:	24040001 	li	a0,1
a0806d30:	00402821 	move	a1,v0
a0806d34:	0c201317 	jal	a0804c5c <sys_move_cursor>
a0806d38:	00000000 	nop
a0806d3c:	3c02a081 	lui	v0,0xa081
a0806d40:	24449b20 	addiu	a0,v0,-25824
a0806d44:	0c20197b 	jal	a08065ec <printf>
a0806d48:	00000000 	nop
a0806d4c:	082019fa 	j	a08067e8 <test_shell+0x60>
a0806d50:	00000000 	nop
a0806d54:	8fc30018 	lw	v1,24(s8)
a0806d58:	27c20010 	addiu	v0,s8,16
a0806d5c:	00431821 	addu	v1,v0,v1
a0806d60:	93c2001c 	lbu	v0,28(s8)
a0806d64:	a0620010 	sb	v0,16(v1)
a0806d68:	8fc20018 	lw	v0,24(s8)
a0806d6c:	24420001 	addiu	v0,v0,1
a0806d70:	afc20018 	sw	v0,24(s8)
a0806d74:	082019fa 	j	a08067e8 <test_shell+0x60>
a0806d78:	00000000 	nop
a0806d7c:	00000000 	nop

a0806d80 <printk_task1>:
a0806d80:	27bdffe0 	addiu	sp,sp,-32
a0806d84:	afbf001c 	sw	ra,28(sp)
a0806d88:	afbe0018 	sw	s8,24(sp)
a0806d8c:	03a0f021 	move	s8,sp
a0806d90:	24020001 	li	v0,1
a0806d94:	afc20010 	sw	v0,16(s8)
a0806d98:	afc00014 	sw	zero,20(s8)
a0806d9c:	24040001 	li	a0,1
a0806da0:	8fc50010 	lw	a1,16(s8)
a0806da4:	0c20028c 	jal	a0800a30 <vt100_move_cursor>
a0806da8:	00000000 	nop
a0806dac:	3c02a081 	lui	v0,0xa081
a0806db0:	24449bc0 	addiu	a0,v0,-25664
a0806db4:	8fc50014 	lw	a1,20(s8)
a0806db8:	0c201959 	jal	a0806564 <printk>
a0806dbc:	00000000 	nop
a0806dc0:	8fc20014 	lw	v0,20(s8)
a0806dc4:	24420001 	addiu	v0,v0,1
a0806dc8:	afc20014 	sw	v0,20(s8)
a0806dcc:	08201b67 	j	a0806d9c <printk_task1+0x1c>
a0806dd0:	00000000 	nop

a0806dd4 <printk_task2>:
a0806dd4:	27bdffe0 	addiu	sp,sp,-32
a0806dd8:	afbf001c 	sw	ra,28(sp)
a0806ddc:	afbe0018 	sw	s8,24(sp)
a0806de0:	03a0f021 	move	s8,sp
a0806de4:	24020002 	li	v0,2
a0806de8:	afc20010 	sw	v0,16(s8)
a0806dec:	afc00014 	sw	zero,20(s8)
a0806df0:	24040001 	li	a0,1
a0806df4:	8fc50010 	lw	a1,16(s8)
a0806df8:	0c20028c 	jal	a0800a30 <vt100_move_cursor>
a0806dfc:	00000000 	nop
a0806e00:	3c02a081 	lui	v0,0xa081
a0806e04:	24449bc0 	addiu	a0,v0,-25664
a0806e08:	8fc50014 	lw	a1,20(s8)
a0806e0c:	0c201959 	jal	a0806564 <printk>
a0806e10:	00000000 	nop
a0806e14:	8fc20014 	lw	v0,20(s8)
a0806e18:	24420001 	addiu	v0,v0,1
a0806e1c:	afc20014 	sw	v0,20(s8)
a0806e20:	08201b7c 	j	a0806df0 <printk_task2+0x1c>
a0806e24:	00000000 	nop

a0806e28 <drawing_task1>:
a0806e28:	27bdffe0 	addiu	sp,sp,-32
a0806e2c:	afbf001c 	sw	ra,28(sp)
a0806e30:	afbe0018 	sw	s8,24(sp)
a0806e34:	03a0f021 	move	s8,sp
a0806e38:	24020016 	li	v0,22
a0806e3c:	afc20010 	sw	v0,16(s8)
a0806e40:	2402003c 	li	v0,60
a0806e44:	afc20014 	sw	v0,20(s8)
a0806e48:	08201bc5 	j	a0806f14 <drawing_task1+0xec>
a0806e4c:	00000000 	nop
a0806e50:	8fc40014 	lw	a0,20(s8)
a0806e54:	8fc50010 	lw	a1,16(s8)
a0806e58:	0c20028c 	jal	a0800a30 <vt100_move_cursor>
a0806e5c:	00000000 	nop
a0806e60:	3c02a081 	lui	v0,0xa081
a0806e64:	24449bf0 	addiu	a0,v0,-25616
a0806e68:	3c02a081 	lui	v0,0xa081
a0806e6c:	2445a524 	addiu	a1,v0,-23260
a0806e70:	0c201959 	jal	a0806564 <printk>
a0806e74:	00000000 	nop
a0806e78:	8fc20010 	lw	v0,16(s8)
a0806e7c:	24420001 	addiu	v0,v0,1
a0806e80:	8fc40014 	lw	a0,20(s8)
a0806e84:	00402821 	move	a1,v0
a0806e88:	0c20028c 	jal	a0800a30 <vt100_move_cursor>
a0806e8c:	00000000 	nop
a0806e90:	3c02a081 	lui	v0,0xa081
a0806e94:	24449bf0 	addiu	a0,v0,-25616
a0806e98:	3c02a081 	lui	v0,0xa081
a0806e9c:	2445a538 	addiu	a1,v0,-23240
a0806ea0:	0c201959 	jal	a0806564 <printk>
a0806ea4:	00000000 	nop
a0806ea8:	8fc20010 	lw	v0,16(s8)
a0806eac:	24420002 	addiu	v0,v0,2
a0806eb0:	8fc40014 	lw	a0,20(s8)
a0806eb4:	00402821 	move	a1,v0
a0806eb8:	0c20028c 	jal	a0800a30 <vt100_move_cursor>
a0806ebc:	00000000 	nop
a0806ec0:	3c02a081 	lui	v0,0xa081
a0806ec4:	24449bf0 	addiu	a0,v0,-25616
a0806ec8:	3c02a081 	lui	v0,0xa081
a0806ecc:	2445a54c 	addiu	a1,v0,-23220
a0806ed0:	0c201959 	jal	a0806564 <printk>
a0806ed4:	00000000 	nop
a0806ed8:	8fc20010 	lw	v0,16(s8)
a0806edc:	24420003 	addiu	v0,v0,3
a0806ee0:	8fc40014 	lw	a0,20(s8)
a0806ee4:	00402821 	move	a1,v0
a0806ee8:	0c20028c 	jal	a0800a30 <vt100_move_cursor>
a0806eec:	00000000 	nop
a0806ef0:	3c02a081 	lui	v0,0xa081
a0806ef4:	24449bf0 	addiu	a0,v0,-25616
a0806ef8:	3c02a081 	lui	v0,0xa081
a0806efc:	2445a560 	addiu	a1,v0,-23200
a0806f00:	0c201959 	jal	a0806564 <printk>
a0806f04:	00000000 	nop
a0806f08:	8fc20014 	lw	v0,20(s8)
a0806f0c:	2442ffff 	addiu	v0,v0,-1
a0806f10:	afc20014 	sw	v0,20(s8)
a0806f14:	8fc20014 	lw	v0,20(s8)
a0806f18:	1c40ffcd 	bgtz	v0,a0806e50 <drawing_task1+0x28>
a0806f1c:	00000000 	nop
a0806f20:	24040001 	li	a0,1
a0806f24:	8fc50010 	lw	a1,16(s8)
a0806f28:	0c20028c 	jal	a0800a30 <vt100_move_cursor>
a0806f2c:	00000000 	nop
a0806f30:	3c02a081 	lui	v0,0xa081
a0806f34:	24449bf0 	addiu	a0,v0,-25616
a0806f38:	3c02a081 	lui	v0,0xa081
a0806f3c:	2445a510 	addiu	a1,v0,-23280
a0806f40:	0c201959 	jal	a0806564 <printk>
a0806f44:	00000000 	nop
a0806f48:	8fc20010 	lw	v0,16(s8)
a0806f4c:	24420001 	addiu	v0,v0,1
a0806f50:	24040001 	li	a0,1
a0806f54:	00402821 	move	a1,v0
a0806f58:	0c20028c 	jal	a0800a30 <vt100_move_cursor>
a0806f5c:	00000000 	nop
a0806f60:	3c02a081 	lui	v0,0xa081
a0806f64:	24449bf0 	addiu	a0,v0,-25616
a0806f68:	3c02a081 	lui	v0,0xa081
a0806f6c:	2445a510 	addiu	a1,v0,-23280
a0806f70:	0c201959 	jal	a0806564 <printk>
a0806f74:	00000000 	nop
a0806f78:	8fc20010 	lw	v0,16(s8)
a0806f7c:	24420002 	addiu	v0,v0,2
a0806f80:	24040001 	li	a0,1
a0806f84:	00402821 	move	a1,v0
a0806f88:	0c20028c 	jal	a0800a30 <vt100_move_cursor>
a0806f8c:	00000000 	nop
a0806f90:	3c02a081 	lui	v0,0xa081
a0806f94:	24449bf0 	addiu	a0,v0,-25616
a0806f98:	3c02a081 	lui	v0,0xa081
a0806f9c:	2445a510 	addiu	a1,v0,-23280
a0806fa0:	0c201959 	jal	a0806564 <printk>
a0806fa4:	00000000 	nop
a0806fa8:	8fc20010 	lw	v0,16(s8)
a0806fac:	24420003 	addiu	v0,v0,3
a0806fb0:	24040001 	li	a0,1
a0806fb4:	00402821 	move	a1,v0
a0806fb8:	0c20028c 	jal	a0800a30 <vt100_move_cursor>
a0806fbc:	00000000 	nop
a0806fc0:	3c02a081 	lui	v0,0xa081
a0806fc4:	24449bf0 	addiu	a0,v0,-25616
a0806fc8:	3c02a081 	lui	v0,0xa081
a0806fcc:	2445a510 	addiu	a1,v0,-23280
a0806fd0:	0c201959 	jal	a0806564 <printk>
a0806fd4:	00000000 	nop
a0806fd8:	08201b90 	j	a0806e40 <drawing_task1+0x18>
a0806fdc:	00000000 	nop

a0806fe0 <printf_task1>:
a0806fe0:	27bdffe0 	addiu	sp,sp,-32
a0806fe4:	afbf001c 	sw	ra,28(sp)
a0806fe8:	afbe0018 	sw	s8,24(sp)
a0806fec:	03a0f021 	move	s8,sp
a0806ff0:	24020003 	li	v0,3
a0806ff4:	afc20010 	sw	v0,16(s8)
a0806ff8:	afc00014 	sw	zero,20(s8)
a0806ffc:	24040001 	li	a0,1
a0807000:	8fc50010 	lw	a1,16(s8)
a0807004:	0c201317 	jal	a0804c5c <sys_move_cursor>
a0807008:	00000000 	nop
a080700c:	3c02a081 	lui	v0,0xa081
a0807010:	24449c00 	addiu	a0,v0,-25600
a0807014:	8fc50014 	lw	a1,20(s8)
a0807018:	0c20197b 	jal	a08065ec <printf>
a080701c:	00000000 	nop
a0807020:	8fc20014 	lw	v0,20(s8)
a0807024:	24420001 	addiu	v0,v0,1
a0807028:	afc20014 	sw	v0,20(s8)
a080702c:	08201bff 	j	a0806ffc <printf_task1+0x1c>
a0807030:	00000000 	nop

a0807034 <printf_task2>:
a0807034:	27bdffe0 	addiu	sp,sp,-32
a0807038:	afbf001c 	sw	ra,28(sp)
a080703c:	afbe0018 	sw	s8,24(sp)
a0807040:	03a0f021 	move	s8,sp
a0807044:	24020004 	li	v0,4
a0807048:	afc20010 	sw	v0,16(s8)
a080704c:	afc00014 	sw	zero,20(s8)
a0807050:	24040001 	li	a0,1
a0807054:	8fc50010 	lw	a1,16(s8)
a0807058:	0c201317 	jal	a0804c5c <sys_move_cursor>
a080705c:	00000000 	nop
a0807060:	3c02a081 	lui	v0,0xa081
a0807064:	24449c00 	addiu	a0,v0,-25600
a0807068:	8fc50014 	lw	a1,20(s8)
a080706c:	0c20197b 	jal	a08065ec <printf>
a0807070:	00000000 	nop
a0807074:	8fc20014 	lw	v0,20(s8)
a0807078:	24420001 	addiu	v0,v0,1
a080707c:	afc20014 	sw	v0,20(s8)
a0807080:	08201c14 	j	a0807050 <printf_task2+0x1c>
a0807084:	00000000 	nop

a0807088 <drawing_task2>:
a0807088:	27bdffe0 	addiu	sp,sp,-32
a080708c:	afbf001c 	sw	ra,28(sp)
a0807090:	afbe0018 	sw	s8,24(sp)
a0807094:	03a0f021 	move	s8,sp
a0807098:	24020016 	li	v0,22
a080709c:	afc20010 	sw	v0,16(s8)
a08070a0:	24020037 	li	v0,55
a08070a4:	afc20014 	sw	v0,20(s8)
a08070a8:	08201c5d 	j	a0807174 <drawing_task2+0xec>
a08070ac:	00000000 	nop
a08070b0:	8fc40014 	lw	a0,20(s8)
a08070b4:	8fc50010 	lw	a1,16(s8)
a08070b8:	0c201317 	jal	a0804c5c <sys_move_cursor>
a08070bc:	00000000 	nop
a08070c0:	3c02a081 	lui	v0,0xa081
a08070c4:	24449c30 	addiu	a0,v0,-25552
a08070c8:	3c02a081 	lui	v0,0xa081
a08070cc:	2445a598 	addiu	a1,v0,-23144
a08070d0:	0c20197b 	jal	a08065ec <printf>
a08070d4:	00000000 	nop
a08070d8:	8fc20010 	lw	v0,16(s8)
a08070dc:	24420001 	addiu	v0,v0,1
a08070e0:	8fc40014 	lw	a0,20(s8)
a08070e4:	00402821 	move	a1,v0
a08070e8:	0c201317 	jal	a0804c5c <sys_move_cursor>
a08070ec:	00000000 	nop
a08070f0:	3c02a081 	lui	v0,0xa081
a08070f4:	24449c30 	addiu	a0,v0,-25552
a08070f8:	3c02a081 	lui	v0,0xa081
a08070fc:	2445a5b0 	addiu	a1,v0,-23120
a0807100:	0c20197b 	jal	a08065ec <printf>
a0807104:	00000000 	nop
a0807108:	8fc20010 	lw	v0,16(s8)
a080710c:	24420002 	addiu	v0,v0,2
a0807110:	8fc40014 	lw	a0,20(s8)
a0807114:	00402821 	move	a1,v0
a0807118:	0c201317 	jal	a0804c5c <sys_move_cursor>
a080711c:	00000000 	nop
a0807120:	3c02a081 	lui	v0,0xa081
a0807124:	24449c30 	addiu	a0,v0,-25552
a0807128:	3c02a081 	lui	v0,0xa081
a080712c:	2445a5c4 	addiu	a1,v0,-23100
a0807130:	0c20197b 	jal	a08065ec <printf>
a0807134:	00000000 	nop
a0807138:	8fc20010 	lw	v0,16(s8)
a080713c:	24420003 	addiu	v0,v0,3
a0807140:	8fc40014 	lw	a0,20(s8)
a0807144:	00402821 	move	a1,v0
a0807148:	0c201317 	jal	a0804c5c <sys_move_cursor>
a080714c:	00000000 	nop
a0807150:	3c02a081 	lui	v0,0xa081
a0807154:	24449c30 	addiu	a0,v0,-25552
a0807158:	3c02a081 	lui	v0,0xa081
a080715c:	2445a5d8 	addiu	a1,v0,-23080
a0807160:	0c20197b 	jal	a08065ec <printf>
a0807164:	00000000 	nop
a0807168:	8fc20014 	lw	v0,20(s8)
a080716c:	2442ffff 	addiu	v0,v0,-1
a0807170:	afc20014 	sw	v0,20(s8)
a0807174:	8fc20014 	lw	v0,20(s8)
a0807178:	1c40ffcd 	bgtz	v0,a08070b0 <drawing_task2+0x28>
a080717c:	00000000 	nop
a0807180:	24040001 	li	a0,1
a0807184:	8fc50010 	lw	a1,16(s8)
a0807188:	0c201317 	jal	a0804c5c <sys_move_cursor>
a080718c:	00000000 	nop
a0807190:	3c02a081 	lui	v0,0xa081
a0807194:	24449c30 	addiu	a0,v0,-25552
a0807198:	3c02a081 	lui	v0,0xa081
a080719c:	2445a580 	addiu	a1,v0,-23168
a08071a0:	0c20197b 	jal	a08065ec <printf>
a08071a4:	00000000 	nop
a08071a8:	8fc20010 	lw	v0,16(s8)
a08071ac:	24420001 	addiu	v0,v0,1
a08071b0:	24040001 	li	a0,1
a08071b4:	00402821 	move	a1,v0
a08071b8:	0c201317 	jal	a0804c5c <sys_move_cursor>
a08071bc:	00000000 	nop
a08071c0:	3c02a081 	lui	v0,0xa081
a08071c4:	24449c30 	addiu	a0,v0,-25552
a08071c8:	3c02a081 	lui	v0,0xa081
a08071cc:	2445a580 	addiu	a1,v0,-23168
a08071d0:	0c20197b 	jal	a08065ec <printf>
a08071d4:	00000000 	nop
a08071d8:	8fc20010 	lw	v0,16(s8)
a08071dc:	24420002 	addiu	v0,v0,2
a08071e0:	24040001 	li	a0,1
a08071e4:	00402821 	move	a1,v0
a08071e8:	0c201317 	jal	a0804c5c <sys_move_cursor>
a08071ec:	00000000 	nop
a08071f0:	3c02a081 	lui	v0,0xa081
a08071f4:	24449c30 	addiu	a0,v0,-25552
a08071f8:	3c02a081 	lui	v0,0xa081
a08071fc:	2445a580 	addiu	a1,v0,-23168
a0807200:	0c20197b 	jal	a08065ec <printf>
a0807204:	00000000 	nop
a0807208:	8fc20010 	lw	v0,16(s8)
a080720c:	24420003 	addiu	v0,v0,3
a0807210:	24040001 	li	a0,1
a0807214:	00402821 	move	a1,v0
a0807218:	0c201317 	jal	a0804c5c <sys_move_cursor>
a080721c:	00000000 	nop
a0807220:	3c02a081 	lui	v0,0xa081
a0807224:	24449c30 	addiu	a0,v0,-25552
a0807228:	3c02a081 	lui	v0,0xa081
a080722c:	2445a580 	addiu	a1,v0,-23168
a0807230:	0c20197b 	jal	a08065ec <printf>
a0807234:	00000000 	nop
a0807238:	08201c28 	j	a08070a0 <drawing_task2+0x18>
a080723c:	00000000 	nop

a0807240 <lock_task1>:
a0807240:	27bdffe0 	addiu	sp,sp,-32
a0807244:	afbf001c 	sw	ra,28(sp)
a0807248:	afbe0018 	sw	s8,24(sp)
a080724c:	03a0f021 	move	s8,sp
a0807250:	24020005 	li	v0,5
a0807254:	afc20014 	sw	v0,20(s8)
a0807258:	3c02a081 	lui	v0,0xa081
a080725c:	8c42cf30 	lw	v0,-12496(v0)
a0807260:	14400008 	bnez	v0,a0807284 <lock_task1+0x44>
a0807264:	00000000 	nop
a0807268:	3c02a083 	lui	v0,0xa083
a080726c:	24443490 	addiu	a0,v0,13456
a0807270:	0c201329 	jal	a0804ca4 <mutex_lock_init>
a0807274:	00000000 	nop
a0807278:	3c03a081 	lui	v1,0xa081
a080727c:	24020001 	li	v0,1
a0807280:	ac62cf30 	sw	v0,-12496(v1)
a0807284:	24040001 	li	a0,1
a0807288:	8fc50014 	lw	a1,20(s8)
a080728c:	0c201317 	jal	a0804c5c <sys_move_cursor>
a0807290:	00000000 	nop
a0807294:	3c02a081 	lui	v0,0xa081
a0807298:	24449c40 	addiu	a0,v0,-25536
a080729c:	3c02a081 	lui	v0,0xa081
a08072a0:	2445a5f0 	addiu	a1,v0,-23056
a08072a4:	0c20197b 	jal	a08065ec <printf>
a08072a8:	00000000 	nop
a08072ac:	24040001 	li	a0,1
a08072b0:	8fc50014 	lw	a1,20(s8)
a08072b4:	0c201317 	jal	a0804c5c <sys_move_cursor>
a08072b8:	00000000 	nop
a08072bc:	3c02a081 	lui	v0,0xa081
a08072c0:	24449c44 	addiu	a0,v0,-25532
a08072c4:	0c20197b 	jal	a08065ec <printf>
a08072c8:	00000000 	nop
a08072cc:	3c02a083 	lui	v0,0xa083
a08072d0:	24443490 	addiu	a0,v0,13456
a08072d4:	0c20133b 	jal	a0804cec <mutex_lock_acquire>
a08072d8:	00000000 	nop
a08072dc:	afc00010 	sw	zero,16(s8)
a08072e0:	08201cc6 	j	a0807318 <lock_task1+0xd8>
a08072e4:	00000000 	nop
a08072e8:	24040001 	li	a0,1
a08072ec:	8fc50014 	lw	a1,20(s8)
a08072f0:	0c201317 	jal	a0804c5c <sys_move_cursor>
a08072f4:	00000000 	nop
a08072f8:	3c02a081 	lui	v0,0xa081
a08072fc:	24449c64 	addiu	a0,v0,-25500
a0807300:	8fc50010 	lw	a1,16(s8)
a0807304:	0c20197b 	jal	a08065ec <printf>
a0807308:	00000000 	nop
a080730c:	8fc20010 	lw	v0,16(s8)
a0807310:	24420001 	addiu	v0,v0,1
a0807314:	afc20010 	sw	v0,16(s8)
a0807318:	8fc20010 	lw	v0,16(s8)
a080731c:	28420014 	slti	v0,v0,20
a0807320:	1440fff1 	bnez	v0,a08072e8 <lock_task1+0xa8>
a0807324:	00000000 	nop
a0807328:	24040001 	li	a0,1
a080732c:	8fc50014 	lw	a1,20(s8)
a0807330:	0c201317 	jal	a0804c5c <sys_move_cursor>
a0807334:	00000000 	nop
a0807338:	3c02a081 	lui	v0,0xa081
a080733c:	24449c40 	addiu	a0,v0,-25536
a0807340:	3c02a081 	lui	v0,0xa081
a0807344:	2445a5f0 	addiu	a1,v0,-23056
a0807348:	0c20197b 	jal	a08065ec <printf>
a080734c:	00000000 	nop
a0807350:	24040001 	li	a0,1
a0807354:	8fc50014 	lw	a1,20(s8)
a0807358:	0c201317 	jal	a0804c5c <sys_move_cursor>
a080735c:	00000000 	nop
a0807360:	3c02a081 	lui	v0,0xa081
a0807364:	24449c94 	addiu	a0,v0,-25452
a0807368:	0c20197b 	jal	a08065ec <printf>
a080736c:	00000000 	nop
a0807370:	3c02a083 	lui	v0,0xa083
a0807374:	24443490 	addiu	a0,v0,13456
a0807378:	0c20134d 	jal	a0804d34 <mutex_lock_release>
a080737c:	00000000 	nop
a0807380:	08201c96 	j	a0807258 <lock_task1+0x18>
a0807384:	00000000 	nop

a0807388 <lock_task2>:
a0807388:	27bdffe0 	addiu	sp,sp,-32
a080738c:	afbf001c 	sw	ra,28(sp)
a0807390:	afbe0018 	sw	s8,24(sp)
a0807394:	03a0f021 	move	s8,sp
a0807398:	24020006 	li	v0,6
a080739c:	afc20014 	sw	v0,20(s8)
a08073a0:	3c02a081 	lui	v0,0xa081
a08073a4:	8c42cf30 	lw	v0,-12496(v0)
a08073a8:	14400008 	bnez	v0,a08073cc <lock_task2+0x44>
a08073ac:	00000000 	nop
a08073b0:	3c02a083 	lui	v0,0xa083
a08073b4:	24443490 	addiu	a0,v0,13456
a08073b8:	0c201329 	jal	a0804ca4 <mutex_lock_init>
a08073bc:	00000000 	nop
a08073c0:	3c03a081 	lui	v1,0xa081
a08073c4:	24020001 	li	v0,1
a08073c8:	ac62cf30 	sw	v0,-12496(v1)
a08073cc:	24040001 	li	a0,1
a08073d0:	8fc50014 	lw	a1,20(s8)
a08073d4:	0c201317 	jal	a0804c5c <sys_move_cursor>
a08073d8:	00000000 	nop
a08073dc:	3c02a081 	lui	v0,0xa081
a08073e0:	24449c40 	addiu	a0,v0,-25536
a08073e4:	3c02a081 	lui	v0,0xa081
a08073e8:	2445a5f0 	addiu	a1,v0,-23056
a08073ec:	0c20197b 	jal	a08065ec <printf>
a08073f0:	00000000 	nop
a08073f4:	24040001 	li	a0,1
a08073f8:	8fc50014 	lw	a1,20(s8)
a08073fc:	0c201317 	jal	a0804c5c <sys_move_cursor>
a0807400:	00000000 	nop
a0807404:	3c02a081 	lui	v0,0xa081
a0807408:	24449c44 	addiu	a0,v0,-25532
a080740c:	0c20197b 	jal	a08065ec <printf>
a0807410:	00000000 	nop
a0807414:	3c02a083 	lui	v0,0xa083
a0807418:	24443490 	addiu	a0,v0,13456
a080741c:	0c20133b 	jal	a0804cec <mutex_lock_acquire>
a0807420:	00000000 	nop
a0807424:	afc00010 	sw	zero,16(s8)
a0807428:	08201d18 	j	a0807460 <lock_task2+0xd8>
a080742c:	00000000 	nop
a0807430:	24040001 	li	a0,1
a0807434:	8fc50014 	lw	a1,20(s8)
a0807438:	0c201317 	jal	a0804c5c <sys_move_cursor>
a080743c:	00000000 	nop
a0807440:	3c02a081 	lui	v0,0xa081
a0807444:	24449c64 	addiu	a0,v0,-25500
a0807448:	8fc50010 	lw	a1,16(s8)
a080744c:	0c20197b 	jal	a08065ec <printf>
a0807450:	00000000 	nop
a0807454:	8fc20010 	lw	v0,16(s8)
a0807458:	24420001 	addiu	v0,v0,1
a080745c:	afc20010 	sw	v0,16(s8)
a0807460:	8fc20010 	lw	v0,16(s8)
a0807464:	28420014 	slti	v0,v0,20
a0807468:	1440fff1 	bnez	v0,a0807430 <lock_task2+0xa8>
a080746c:	00000000 	nop
a0807470:	24040001 	li	a0,1
a0807474:	8fc50014 	lw	a1,20(s8)
a0807478:	0c201317 	jal	a0804c5c <sys_move_cursor>
a080747c:	00000000 	nop
a0807480:	3c02a081 	lui	v0,0xa081
a0807484:	24449c40 	addiu	a0,v0,-25536
a0807488:	3c02a081 	lui	v0,0xa081
a080748c:	2445a5f0 	addiu	a1,v0,-23056
a0807490:	0c20197b 	jal	a08065ec <printf>
a0807494:	00000000 	nop
a0807498:	24040001 	li	a0,1
a080749c:	8fc50014 	lw	a1,20(s8)
a08074a0:	0c201317 	jal	a0804c5c <sys_move_cursor>
a08074a4:	00000000 	nop
a08074a8:	3c02a081 	lui	v0,0xa081
a08074ac:	24449c94 	addiu	a0,v0,-25452
a08074b0:	0c20197b 	jal	a08065ec <printf>
a08074b4:	00000000 	nop
a08074b8:	3c02a083 	lui	v0,0xa083
a08074bc:	24443490 	addiu	a0,v0,13456
a08074c0:	0c20134d 	jal	a0804d34 <mutex_lock_release>
a08074c4:	00000000 	nop
a08074c8:	08201ce8 	j	a08073a0 <lock_task2+0x18>
a08074cc:	00000000 	nop

a08074d0 <sleep_task>:
a08074d0:	27bdffd8 	addiu	sp,sp,-40
a08074d4:	afbf0024 	sw	ra,36(sp)
a08074d8:	afbe0020 	sw	s8,32(sp)
a08074dc:	03a0f021 	move	s8,sp
a08074e0:	24020001 	li	v0,1
a08074e4:	afc20014 	sw	v0,20(s8)
a08074e8:	24020006 	li	v0,6
a08074ec:	afc20010 	sw	v0,16(s8)
a08074f0:	afc00018 	sw	zero,24(s8)
a08074f4:	08201d4b 	j	a080752c <sleep_task+0x5c>
a08074f8:	00000000 	nop
a08074fc:	24040001 	li	a0,1
a0807500:	8fc50014 	lw	a1,20(s8)
a0807504:	0c201317 	jal	a0804c5c <sys_move_cursor>
a0807508:	00000000 	nop
a080750c:	3c02a081 	lui	v0,0xa081
a0807510:	24449cc0 	addiu	a0,v0,-25408
a0807514:	8fc50018 	lw	a1,24(s8)
a0807518:	0c20197b 	jal	a08065ec <printf>
a080751c:	00000000 	nop
a0807520:	8fc20018 	lw	v0,24(s8)
a0807524:	24420001 	addiu	v0,v0,1
a0807528:	afc20018 	sw	v0,24(s8)
a080752c:	8fc20018 	lw	v0,24(s8)
a0807530:	28420014 	slti	v0,v0,20
a0807534:	1440fff1 	bnez	v0,a08074fc <sleep_task+0x2c>
a0807538:	00000000 	nop
a080753c:	24040001 	li	a0,1
a0807540:	8fc50014 	lw	a1,20(s8)
a0807544:	0c201317 	jal	a0804c5c <sys_move_cursor>
a0807548:	00000000 	nop
a080754c:	3c02a081 	lui	v0,0xa081
a0807550:	24449cf0 	addiu	a0,v0,-25360
a0807554:	8fc50010 	lw	a1,16(s8)
a0807558:	0c20197b 	jal	a08065ec <printf>
a080755c:	00000000 	nop
a0807560:	8fc20010 	lw	v0,16(s8)
a0807564:	00402021 	move	a0,v0
a0807568:	0c2012ad 	jal	a0804ab4 <sys_sleep>
a080756c:	00000000 	nop
a0807570:	24040001 	li	a0,1
a0807574:	8fc50014 	lw	a1,20(s8)
a0807578:	0c201317 	jal	a0804c5c <sys_move_cursor>
a080757c:	00000000 	nop
a0807580:	3c02a081 	lui	v0,0xa081
a0807584:	24449d24 	addiu	a0,v0,-25308
a0807588:	3c02a081 	lui	v0,0xa081
a080758c:	2445a620 	addiu	a1,v0,-23008
a0807590:	0c20197b 	jal	a08065ec <printf>
a0807594:	00000000 	nop
a0807598:	08201d3c 	j	a08074f0 <sleep_task+0x20>
a080759c:	00000000 	nop

a08075a0 <timer_task>:
a08075a0:	27bdffd8 	addiu	sp,sp,-40
a08075a4:	afbf0024 	sw	ra,36(sp)
a08075a8:	afbe0020 	sw	s8,32(sp)
a08075ac:	03a0f021 	move	s8,sp
a08075b0:	afc00018 	sw	zero,24(s8)
a08075b4:	24020002 	li	v0,2
a08075b8:	afc20014 	sw	v0,20(s8)
a08075bc:	0c20125a 	jal	a0804968 <get_timer>
a08075c0:	00000000 	nop
a08075c4:	afc20010 	sw	v0,16(s8)
a08075c8:	24040001 	li	a0,1
a08075cc:	8fc50014 	lw	a1,20(s8)
a08075d0:	0c201317 	jal	a0804c5c <sys_move_cursor>
a08075d4:	00000000 	nop
a08075d8:	3c02a081 	lui	v0,0xa081
a08075dc:	8c43bec0 	lw	v1,-16704(v0)
a08075e0:	3c02a081 	lui	v0,0xa081
a08075e4:	24449d30 	addiu	a0,v0,-25296
a08075e8:	8fc50010 	lw	a1,16(s8)
a08075ec:	00603021 	move	a2,v1
a08075f0:	0c20197b 	jal	a08065ec <printf>
a08075f4:	00000000 	nop
a08075f8:	08201d6f 	j	a08075bc <timer_task+0x1c>
a08075fc:	00000000 	nop

a0807600 <ready_to_exit_task>:
a0807600:	27bdffe0 	addiu	sp,sp,-32
a0807604:	afbf001c 	sw	ra,28(sp)
a0807608:	afbe0018 	sw	s8,24(sp)
a080760c:	03a0f021 	move	s8,sp
a0807610:	afc00014 	sw	zero,20(s8)
a0807614:	afc00010 	sw	zero,16(s8)
a0807618:	3c02a083 	lui	v0,0xa083
a080761c:	2444349c 	addiu	a0,v0,13468
a0807620:	0c201329 	jal	a0804ca4 <mutex_lock_init>
a0807624:	00000000 	nop
a0807628:	3c02a083 	lui	v0,0xa083
a080762c:	244434a8 	addiu	a0,v0,13480
a0807630:	0c201329 	jal	a0804ca4 <mutex_lock_init>
a0807634:	00000000 	nop
a0807638:	3c02a083 	lui	v0,0xa083
a080763c:	2444349c 	addiu	a0,v0,13468
a0807640:	0c20133b 	jal	a0804cec <mutex_lock_acquire>
a0807644:	00000000 	nop
a0807648:	3c02a083 	lui	v0,0xa083
a080764c:	244434a8 	addiu	a0,v0,13480
a0807650:	0c20133b 	jal	a0804cec <mutex_lock_acquire>
a0807654:	00000000 	nop
a0807658:	afc00014 	sw	zero,20(s8)
a080765c:	08201dac 	j	a08076b0 <ready_to_exit_task+0xb0>
a0807660:	00000000 	nop
a0807664:	00002021 	move	a0,zero
a0807668:	8fc50010 	lw	a1,16(s8)
a080766c:	0c201317 	jal	a0804c5c <sys_move_cursor>
a0807670:	00000000 	nop
a0807674:	3c02a081 	lui	v0,0xa081
a0807678:	8c42aba8 	lw	v0,-21592(v0)
a080767c:	8c430148 	lw	v1,328(v0)
a0807680:	8fc60014 	lw	a2,20(s8)
a0807684:	8fc20014 	lw	v0,20(s8)
a0807688:	24420001 	addiu	v0,v0,1
a080768c:	afc20014 	sw	v0,20(s8)
a0807690:	3c02a081 	lui	v0,0xa081
a0807694:	24449d70 	addiu	a0,v0,-25232
a0807698:	00602821 	move	a1,v1
a080769c:	0c20197b 	jal	a08065ec <printf>
a08076a0:	00000000 	nop
a08076a4:	8fc20014 	lw	v0,20(s8)
a08076a8:	24420001 	addiu	v0,v0,1
a08076ac:	afc20014 	sw	v0,20(s8)
a08076b0:	8fc20014 	lw	v0,20(s8)
a08076b4:	2842012c 	slti	v0,v0,300
a08076b8:	1440ffea 	bnez	v0,a0807664 <ready_to_exit_task+0x64>
a08076bc:	00000000 	nop
a08076c0:	0c2013b6 	jal	a0804ed8 <sys_exit>
a08076c4:	00000000 	nop
a08076c8:	03c0e821 	move	sp,s8
a08076cc:	8fbf001c 	lw	ra,28(sp)
a08076d0:	8fbe0018 	lw	s8,24(sp)
a08076d4:	27bd0020 	addiu	sp,sp,32
a08076d8:	03e00008 	jr	ra
a08076dc:	00000000 	nop

a08076e0 <wait_lock_task>:
a08076e0:	27bdffe0 	addiu	sp,sp,-32
a08076e4:	afbf001c 	sw	ra,28(sp)
a08076e8:	afbe0018 	sw	s8,24(sp)
a08076ec:	03a0f021 	move	s8,sp
a08076f0:	24020001 	li	v0,1
a08076f4:	afc20010 	sw	v0,16(s8)
a08076f8:	00002021 	move	a0,zero
a08076fc:	8fc50010 	lw	a1,16(s8)
a0807700:	0c201317 	jal	a0804c5c <sys_move_cursor>
a0807704:	00000000 	nop
a0807708:	3c02a081 	lui	v0,0xa081
a080770c:	24449db8 	addiu	a0,v0,-25160
a0807710:	0c20197b 	jal	a08065ec <printf>
a0807714:	00000000 	nop
a0807718:	3c02a083 	lui	v0,0xa083
a080771c:	2444349c 	addiu	a0,v0,13468
a0807720:	0c20133b 	jal	a0804cec <mutex_lock_acquire>
a0807724:	00000000 	nop
a0807728:	00002021 	move	a0,zero
a080772c:	8fc50010 	lw	a1,16(s8)
a0807730:	0c201317 	jal	a0804c5c <sys_move_cursor>
a0807734:	00000000 	nop
a0807738:	3c02a081 	lui	v0,0xa081
a080773c:	24449df4 	addiu	a0,v0,-25100
a0807740:	0c20197b 	jal	a08065ec <printf>
a0807744:	00000000 	nop
a0807748:	0c2013b6 	jal	a0804ed8 <sys_exit>
a080774c:	00000000 	nop
a0807750:	03c0e821 	move	sp,s8
a0807754:	8fbf001c 	lw	ra,28(sp)
a0807758:	8fbe0018 	lw	s8,24(sp)
a080775c:	27bd0020 	addiu	sp,sp,32
a0807760:	03e00008 	jr	ra
a0807764:	00000000 	nop

a0807768 <wait_exit_task>:
a0807768:	27bdffe0 	addiu	sp,sp,-32
a080776c:	afbf001c 	sw	ra,28(sp)
a0807770:	afbe0018 	sw	s8,24(sp)
a0807774:	03a0f021 	move	s8,sp
a0807778:	24020002 	li	v0,2
a080777c:	afc20010 	sw	v0,16(s8)
a0807780:	00002021 	move	a0,zero
a0807784:	8fc50010 	lw	a1,16(s8)
a0807788:	0c201317 	jal	a0804c5c <sys_move_cursor>
a080778c:	00000000 	nop
a0807790:	3c02a081 	lui	v0,0xa081
a0807794:	24449e2c 	addiu	a0,v0,-25044
a0807798:	0c20197b 	jal	a08065ec <printf>
a080779c:	00000000 	nop
a08077a0:	24040002 	li	a0,2
a08077a4:	0c2013c6 	jal	a0804f18 <sys_waitpid>
a08077a8:	00000000 	nop
a08077ac:	00002021 	move	a0,zero
a08077b0:	8fc50010 	lw	a1,16(s8)
a08077b4:	0c201317 	jal	a0804c5c <sys_move_cursor>
a08077b8:	00000000 	nop
a08077bc:	3c02a081 	lui	v0,0xa081
a08077c0:	24449e5c 	addiu	a0,v0,-24996
a08077c4:	0c20197b 	jal	a08065ec <printf>
a08077c8:	00000000 	nop
a08077cc:	0c2013b6 	jal	a0804ed8 <sys_exit>
a08077d0:	00000000 	nop
a08077d4:	03c0e821 	move	sp,s8
a08077d8:	8fbf001c 	lw	ra,28(sp)
a08077dc:	8fbe0018 	lw	s8,24(sp)
a08077e0:	27bd0020 	addiu	sp,sp,32
a08077e4:	03e00008 	jr	ra
a08077e8:	00000000 	nop
a08077ec:	00000000 	nop

a08077f0 <producer_task>:
a08077f0:	27bdffd8 	addiu	sp,sp,-40
a08077f4:	afbf0024 	sw	ra,36(sp)
a08077f8:	afbe0020 	sw	s8,32(sp)
a08077fc:	03a0f021 	move	s8,sp
a0807800:	afc00018 	sw	zero,24(s8)
a0807804:	24020003 	li	v0,3
a0807808:	afc20014 	sw	v0,20(s8)
a080780c:	afc00010 	sw	zero,16(s8)
a0807810:	3c02a081 	lui	v0,0xa081
a0807814:	2444cf44 	addiu	a0,v0,-12476
a0807818:	0c201329 	jal	a0804ca4 <mutex_lock_init>
a080781c:	00000000 	nop
a0807820:	3c02a081 	lui	v0,0xa081
a0807824:	2444cf50 	addiu	a0,v0,-12464
a0807828:	0c20140e 	jal	a0805038 <condition_init>
a080782c:	00000000 	nop
a0807830:	afc0001c 	sw	zero,28(s8)
a0807834:	08201e34 	j	a08078d0 <producer_task+0xe0>
a0807838:	00000000 	nop
a080783c:	3c02a081 	lui	v0,0xa081
a0807840:	2444cf44 	addiu	a0,v0,-12476
a0807844:	0c20133b 	jal	a0804cec <mutex_lock_acquire>
a0807848:	00000000 	nop
a080784c:	3c02a081 	lui	v0,0xa081
a0807850:	8c43cf40 	lw	v1,-12480(v0)
a0807854:	8fc20014 	lw	v0,20(s8)
a0807858:	00621821 	addu	v1,v1,v0
a080785c:	3c02a081 	lui	v0,0xa081
a0807860:	ac43cf40 	sw	v1,-12480(v0)
a0807864:	8fc30010 	lw	v1,16(s8)
a0807868:	8fc20014 	lw	v0,20(s8)
a080786c:	00621021 	addu	v0,v1,v0
a0807870:	afc20010 	sw	v0,16(s8)
a0807874:	3c02a081 	lui	v0,0xa081
a0807878:	2444cf44 	addiu	a0,v0,-12476
a080787c:	0c20134d 	jal	a0804d34 <mutex_lock_release>
a0807880:	00000000 	nop
a0807884:	00002021 	move	a0,zero
a0807888:	8fc50018 	lw	a1,24(s8)
a080788c:	0c201317 	jal	a0804c5c <sys_move_cursor>
a0807890:	00000000 	nop
a0807894:	3c02a081 	lui	v0,0xa081
a0807898:	24449e90 	addiu	a0,v0,-24944
a080789c:	8fc50010 	lw	a1,16(s8)
a08078a0:	0c20197b 	jal	a08065ec <printf>
a08078a4:	00000000 	nop
a08078a8:	3c02a081 	lui	v0,0xa081
a08078ac:	2444cf50 	addiu	a0,v0,-12464
a08078b0:	0c201446 	jal	a0805118 <condition_broadcast>
a08078b4:	00000000 	nop
a08078b8:	24040001 	li	a0,1
a08078bc:	0c2012ad 	jal	a0804ab4 <sys_sleep>
a08078c0:	00000000 	nop
a08078c4:	8fc2001c 	lw	v0,28(s8)
a08078c8:	24420001 	addiu	v0,v0,1
a08078cc:	afc2001c 	sw	v0,28(s8)
a08078d0:	8fc2001c 	lw	v0,28(s8)
a08078d4:	28420014 	slti	v0,v0,20
a08078d8:	1440ffd8 	bnez	v0,a080783c <producer_task+0x4c>
a08078dc:	00000000 	nop
a08078e0:	0c2013b6 	jal	a0804ed8 <sys_exit>
a08078e4:	00000000 	nop
a08078e8:	03c0e821 	move	sp,s8
a08078ec:	8fbf0024 	lw	ra,36(sp)
a08078f0:	8fbe0020 	lw	s8,32(sp)
a08078f4:	27bd0028 	addiu	sp,sp,40
a08078f8:	03e00008 	jr	ra
a08078fc:	00000000 	nop

a0807900 <consumer_task1>:
a0807900:	27bdffd8 	addiu	sp,sp,-40
a0807904:	afbf0024 	sw	ra,36(sp)
a0807908:	afbe0020 	sw	s8,32(sp)
a080790c:	03a0f021 	move	s8,sp
a0807910:	24020001 	li	v0,1
a0807914:	afc20018 	sw	v0,24(s8)
a0807918:	24020001 	li	v0,1
a080791c:	afc20014 	sw	v0,20(s8)
a0807920:	afc00010 	sw	zero,16(s8)
a0807924:	3c02a081 	lui	v0,0xa081
a0807928:	2444cf44 	addiu	a0,v0,-12476
a080792c:	0c20133b 	jal	a0804cec <mutex_lock_acquire>
a0807930:	00000000 	nop
a0807934:	08201e55 	j	a0807954 <consumer_task1+0x54>
a0807938:	00000000 	nop
a080793c:	3c02a081 	lui	v0,0xa081
a0807940:	2444cf44 	addiu	a0,v0,-12476
a0807944:	3c02a081 	lui	v0,0xa081
a0807948:	2445cf50 	addiu	a1,v0,-12464
a080794c:	0c201420 	jal	a0805080 <condition_wait>
a0807950:	00000000 	nop
a0807954:	3c02a081 	lui	v0,0xa081
a0807958:	8c42cf40 	lw	v0,-12480(v0)
a080795c:	1040fff7 	beqz	v0,a080793c <consumer_task1+0x3c>
a0807960:	00000000 	nop
a0807964:	3c02a081 	lui	v0,0xa081
a0807968:	8c43cf40 	lw	v1,-12480(v0)
a080796c:	8fc20014 	lw	v0,20(s8)
a0807970:	00621823 	subu	v1,v1,v0
a0807974:	3c02a081 	lui	v0,0xa081
a0807978:	ac43cf40 	sw	v1,-12480(v0)
a080797c:	8fc30010 	lw	v1,16(s8)
a0807980:	8fc20014 	lw	v0,20(s8)
a0807984:	00621021 	addu	v0,v1,v0
a0807988:	afc20010 	sw	v0,16(s8)
a080798c:	00002021 	move	a0,zero
a0807990:	8fc50018 	lw	a1,24(s8)
a0807994:	0c201317 	jal	a0804c5c <sys_move_cursor>
a0807998:	00000000 	nop
a080799c:	3c02a081 	lui	v0,0xa081
a08079a0:	24449eb8 	addiu	a0,v0,-24904
a08079a4:	8fc50010 	lw	a1,16(s8)
a08079a8:	0c20197b 	jal	a08065ec <printf>
a08079ac:	00000000 	nop
a08079b0:	3c02a081 	lui	v0,0xa081
a08079b4:	2444cf44 	addiu	a0,v0,-12476
a08079b8:	0c20134d 	jal	a0804d34 <mutex_lock_release>
a08079bc:	00000000 	nop
a08079c0:	24040001 	li	a0,1
a08079c4:	0c2012ad 	jal	a0804ab4 <sys_sleep>
a08079c8:	00000000 	nop
a08079cc:	08201e49 	j	a0807924 <consumer_task1+0x24>
a08079d0:	00000000 	nop

a08079d4 <consumer_task2>:
a08079d4:	27bdffd8 	addiu	sp,sp,-40
a08079d8:	afbf0024 	sw	ra,36(sp)
a08079dc:	afbe0020 	sw	s8,32(sp)
a08079e0:	03a0f021 	move	s8,sp
a08079e4:	24020002 	li	v0,2
a08079e8:	afc20018 	sw	v0,24(s8)
a08079ec:	24020001 	li	v0,1
a08079f0:	afc20014 	sw	v0,20(s8)
a08079f4:	afc00010 	sw	zero,16(s8)
a08079f8:	3c02a081 	lui	v0,0xa081
a08079fc:	2444cf44 	addiu	a0,v0,-12476
a0807a00:	0c20133b 	jal	a0804cec <mutex_lock_acquire>
a0807a04:	00000000 	nop
a0807a08:	08201e8a 	j	a0807a28 <consumer_task2+0x54>
a0807a0c:	00000000 	nop
a0807a10:	3c02a081 	lui	v0,0xa081
a0807a14:	2444cf44 	addiu	a0,v0,-12476
a0807a18:	3c02a081 	lui	v0,0xa081
a0807a1c:	2445cf50 	addiu	a1,v0,-12464
a0807a20:	0c201420 	jal	a0805080 <condition_wait>
a0807a24:	00000000 	nop
a0807a28:	3c02a081 	lui	v0,0xa081
a0807a2c:	8c42cf40 	lw	v0,-12480(v0)
a0807a30:	1040fff7 	beqz	v0,a0807a10 <consumer_task2+0x3c>
a0807a34:	00000000 	nop
a0807a38:	3c02a081 	lui	v0,0xa081
a0807a3c:	8c43cf40 	lw	v1,-12480(v0)
a0807a40:	8fc20014 	lw	v0,20(s8)
a0807a44:	00621823 	subu	v1,v1,v0
a0807a48:	3c02a081 	lui	v0,0xa081
a0807a4c:	ac43cf40 	sw	v1,-12480(v0)
a0807a50:	8fc30010 	lw	v1,16(s8)
a0807a54:	8fc20014 	lw	v0,20(s8)
a0807a58:	00621021 	addu	v0,v1,v0
a0807a5c:	afc20010 	sw	v0,16(s8)
a0807a60:	00002021 	move	a0,zero
a0807a64:	8fc50018 	lw	a1,24(s8)
a0807a68:	0c201317 	jal	a0804c5c <sys_move_cursor>
a0807a6c:	00000000 	nop
a0807a70:	3c02a081 	lui	v0,0xa081
a0807a74:	24449eb8 	addiu	a0,v0,-24904
a0807a78:	8fc50010 	lw	a1,16(s8)
a0807a7c:	0c20197b 	jal	a08065ec <printf>
a0807a80:	00000000 	nop
a0807a84:	3c02a081 	lui	v0,0xa081
a0807a88:	2444cf44 	addiu	a0,v0,-12476
a0807a8c:	0c20134d 	jal	a0804d34 <mutex_lock_release>
a0807a90:	00000000 	nop
a0807a94:	24040001 	li	a0,1
a0807a98:	0c2012ad 	jal	a0804ab4 <sys_sleep>
a0807a9c:	00000000 	nop
a0807aa0:	08201e7e 	j	a08079f8 <consumer_task2+0x24>
a0807aa4:	00000000 	nop
	...

a0807ab0 <semaphore_add_task1>:
a0807ab0:	27bdffe0 	addiu	sp,sp,-32
a0807ab4:	afbf001c 	sw	ra,28(sp)
a0807ab8:	afbe0018 	sw	s8,24(sp)
a0807abc:	03a0f021 	move	s8,sp
a0807ac0:	afc00010 	sw	zero,16(s8)
a0807ac4:	3c02a081 	lui	v0,0xa081
a0807ac8:	2444cf64 	addiu	a0,v0,-12444
a0807acc:	24050001 	li	a1,1
a0807ad0:	0c2013d7 	jal	a0804f5c <semaphore_init>
a0807ad4:	00000000 	nop
a0807ad8:	afc00014 	sw	zero,20(s8)
a0807adc:	08201ed9 	j	a0807b64 <semaphore_add_task1+0xb4>
a0807ae0:	00000000 	nop
a0807ae4:	3c02a081 	lui	v0,0xa081
a0807ae8:	2444cf64 	addiu	a0,v0,-12444
a0807aec:	0c2013fc 	jal	a0804ff0 <semaphore_down>
a0807af0:	00000000 	nop
a0807af4:	3c02a081 	lui	v0,0xa081
a0807af8:	8c42cf60 	lw	v0,-12448(v0)
a0807afc:	24430001 	addiu	v1,v0,1
a0807b00:	3c02a081 	lui	v0,0xa081
a0807b04:	ac43cf60 	sw	v1,-12448(v0)
a0807b08:	3c02a081 	lui	v0,0xa081
a0807b0c:	2444cf64 	addiu	a0,v0,-12444
a0807b10:	0c2013ea 	jal	a0804fa8 <semaphore_up>
a0807b14:	00000000 	nop
a0807b18:	00002021 	move	a0,zero
a0807b1c:	8fc50010 	lw	a1,16(s8)
a0807b20:	0c201317 	jal	a0804c5c <sys_move_cursor>
a0807b24:	00000000 	nop
a0807b28:	3c02a081 	lui	v0,0xa081
a0807b2c:	8c43cf60 	lw	v1,-12448(v0)
a0807b30:	8fc20014 	lw	v0,20(s8)
a0807b34:	24460001 	addiu	a2,v0,1
a0807b38:	3c02a081 	lui	v0,0xa081
a0807b3c:	24449ee0 	addiu	a0,v0,-24864
a0807b40:	00602821 	move	a1,v1
a0807b44:	0c20197b 	jal	a08065ec <printf>
a0807b48:	00000000 	nop
a0807b4c:	24040001 	li	a0,1
a0807b50:	0c2012ad 	jal	a0804ab4 <sys_sleep>
a0807b54:	00000000 	nop
a0807b58:	8fc20014 	lw	v0,20(s8)
a0807b5c:	24420001 	addiu	v0,v0,1
a0807b60:	afc20014 	sw	v0,20(s8)
a0807b64:	8fc20014 	lw	v0,20(s8)
a0807b68:	2842000a 	slti	v0,v0,10
a0807b6c:	1440ffdd 	bnez	v0,a0807ae4 <semaphore_add_task1+0x34>
a0807b70:	00000000 	nop
a0807b74:	0c2013b6 	jal	a0804ed8 <sys_exit>
a0807b78:	00000000 	nop
a0807b7c:	03c0e821 	move	sp,s8
a0807b80:	8fbf001c 	lw	ra,28(sp)
a0807b84:	8fbe0018 	lw	s8,24(sp)
a0807b88:	27bd0020 	addiu	sp,sp,32
a0807b8c:	03e00008 	jr	ra
a0807b90:	00000000 	nop

a0807b94 <semaphore_add_task2>:
a0807b94:	27bdffe0 	addiu	sp,sp,-32
a0807b98:	afbf001c 	sw	ra,28(sp)
a0807b9c:	afbe0018 	sw	s8,24(sp)
a0807ba0:	03a0f021 	move	s8,sp
a0807ba4:	24020001 	li	v0,1
a0807ba8:	afc20010 	sw	v0,16(s8)
a0807bac:	afc00014 	sw	zero,20(s8)
a0807bb0:	08201f0e 	j	a0807c38 <semaphore_add_task2+0xa4>
a0807bb4:	00000000 	nop
a0807bb8:	3c02a081 	lui	v0,0xa081
a0807bbc:	2444cf64 	addiu	a0,v0,-12444
a0807bc0:	0c2013fc 	jal	a0804ff0 <semaphore_down>
a0807bc4:	00000000 	nop
a0807bc8:	3c02a081 	lui	v0,0xa081
a0807bcc:	8c42cf60 	lw	v0,-12448(v0)
a0807bd0:	24430001 	addiu	v1,v0,1
a0807bd4:	3c02a081 	lui	v0,0xa081
a0807bd8:	ac43cf60 	sw	v1,-12448(v0)
a0807bdc:	3c02a081 	lui	v0,0xa081
a0807be0:	2444cf64 	addiu	a0,v0,-12444
a0807be4:	0c2013ea 	jal	a0804fa8 <semaphore_up>
a0807be8:	00000000 	nop
a0807bec:	00002021 	move	a0,zero
a0807bf0:	8fc50010 	lw	a1,16(s8)
a0807bf4:	0c201317 	jal	a0804c5c <sys_move_cursor>
a0807bf8:	00000000 	nop
a0807bfc:	3c02a081 	lui	v0,0xa081
a0807c00:	8c43cf60 	lw	v1,-12448(v0)
a0807c04:	8fc20014 	lw	v0,20(s8)
a0807c08:	24460001 	addiu	a2,v0,1
a0807c0c:	3c02a081 	lui	v0,0xa081
a0807c10:	24449ee0 	addiu	a0,v0,-24864
a0807c14:	00602821 	move	a1,v1
a0807c18:	0c20197b 	jal	a08065ec <printf>
a0807c1c:	00000000 	nop
a0807c20:	24040001 	li	a0,1
a0807c24:	0c2012ad 	jal	a0804ab4 <sys_sleep>
a0807c28:	00000000 	nop
a0807c2c:	8fc20014 	lw	v0,20(s8)
a0807c30:	24420001 	addiu	v0,v0,1
a0807c34:	afc20014 	sw	v0,20(s8)
a0807c38:	8fc20014 	lw	v0,20(s8)
a0807c3c:	28420014 	slti	v0,v0,20
a0807c40:	1440ffdd 	bnez	v0,a0807bb8 <semaphore_add_task2+0x24>
a0807c44:	00000000 	nop
a0807c48:	0c2013b6 	jal	a0804ed8 <sys_exit>
a0807c4c:	00000000 	nop
a0807c50:	03c0e821 	move	sp,s8
a0807c54:	8fbf001c 	lw	ra,28(sp)
a0807c58:	8fbe0018 	lw	s8,24(sp)
a0807c5c:	27bd0020 	addiu	sp,sp,32
a0807c60:	03e00008 	jr	ra
a0807c64:	00000000 	nop

a0807c68 <semaphore_add_task3>:
a0807c68:	27bdffe0 	addiu	sp,sp,-32
a0807c6c:	afbf001c 	sw	ra,28(sp)
a0807c70:	afbe0018 	sw	s8,24(sp)
a0807c74:	03a0f021 	move	s8,sp
a0807c78:	24020002 	li	v0,2
a0807c7c:	afc20010 	sw	v0,16(s8)
a0807c80:	afc00014 	sw	zero,20(s8)
a0807c84:	08201f43 	j	a0807d0c <semaphore_add_task3+0xa4>
a0807c88:	00000000 	nop
a0807c8c:	3c02a081 	lui	v0,0xa081
a0807c90:	2444cf64 	addiu	a0,v0,-12444
a0807c94:	0c2013fc 	jal	a0804ff0 <semaphore_down>
a0807c98:	00000000 	nop
a0807c9c:	3c02a081 	lui	v0,0xa081
a0807ca0:	8c42cf60 	lw	v0,-12448(v0)
a0807ca4:	24430001 	addiu	v1,v0,1
a0807ca8:	3c02a081 	lui	v0,0xa081
a0807cac:	ac43cf60 	sw	v1,-12448(v0)
a0807cb0:	3c02a081 	lui	v0,0xa081
a0807cb4:	2444cf64 	addiu	a0,v0,-12444
a0807cb8:	0c2013ea 	jal	a0804fa8 <semaphore_up>
a0807cbc:	00000000 	nop
a0807cc0:	00002021 	move	a0,zero
a0807cc4:	8fc50010 	lw	a1,16(s8)
a0807cc8:	0c201317 	jal	a0804c5c <sys_move_cursor>
a0807ccc:	00000000 	nop
a0807cd0:	3c02a081 	lui	v0,0xa081
a0807cd4:	8c43cf60 	lw	v1,-12448(v0)
a0807cd8:	8fc20014 	lw	v0,20(s8)
a0807cdc:	24460001 	addiu	a2,v0,1
a0807ce0:	3c02a081 	lui	v0,0xa081
a0807ce4:	24449ee0 	addiu	a0,v0,-24864
a0807ce8:	00602821 	move	a1,v1
a0807cec:	0c20197b 	jal	a08065ec <printf>
a0807cf0:	00000000 	nop
a0807cf4:	24040001 	li	a0,1
a0807cf8:	0c2012ad 	jal	a0804ab4 <sys_sleep>
a0807cfc:	00000000 	nop
a0807d00:	8fc20014 	lw	v0,20(s8)
a0807d04:	24420001 	addiu	v0,v0,1
a0807d08:	afc20014 	sw	v0,20(s8)
a0807d0c:	8fc20014 	lw	v0,20(s8)
a0807d10:	2842001e 	slti	v0,v0,30
a0807d14:	1440ffdd 	bnez	v0,a0807c8c <semaphore_add_task3+0x24>
a0807d18:	00000000 	nop
a0807d1c:	0c2013b6 	jal	a0804ed8 <sys_exit>
a0807d20:	00000000 	nop
a0807d24:	03c0e821 	move	sp,s8
a0807d28:	8fbf001c 	lw	ra,28(sp)
a0807d2c:	8fbe0018 	lw	s8,24(sp)
a0807d30:	27bd0020 	addiu	sp,sp,32
a0807d34:	03e00008 	jr	ra
a0807d38:	00000000 	nop
a0807d3c:	00000000 	nop

a0807d40 <barrier_task1>:
a0807d40:	27bdffe0 	addiu	sp,sp,-32
a0807d44:	afbf001c 	sw	ra,28(sp)
a0807d48:	afbe0018 	sw	s8,24(sp)
a0807d4c:	03a0f021 	move	s8,sp
a0807d50:	afc00010 	sw	zero,16(s8)
a0807d54:	3c02a081 	lui	v0,0xa081
a0807d58:	8c42cf70 	lw	v0,-12432(v0)
a0807d5c:	1440000b 	bnez	v0,a0807d8c <barrier_task1+0x4c>
a0807d60:	00000000 	nop
a0807d64:	3c03a081 	lui	v1,0xa081
a0807d68:	24020001 	li	v0,1
a0807d6c:	ac62cf70 	sw	v0,-12432(v1)
a0807d70:	3c02a081 	lui	v0,0xa081
a0807d74:	8c43a6a0 	lw	v1,-22880(v0)
a0807d78:	3c02a081 	lui	v0,0xa081
a0807d7c:	2444cf74 	addiu	a0,v0,-12428
a0807d80:	00602821 	move	a1,v1
a0807d84:	0c201458 	jal	a0805160 <barrier_init>
a0807d88:	00000000 	nop
a0807d8c:	afc00014 	sw	zero,20(s8)
a0807d90:	00002021 	move	a0,zero
a0807d94:	8fc50010 	lw	a1,16(s8)
a0807d98:	0c201317 	jal	a0804c5c <sys_move_cursor>
a0807d9c:	00000000 	nop
a0807da0:	3c02a081 	lui	v0,0xa081
a0807da4:	24449f10 	addiu	a0,v0,-24816
a0807da8:	8fc50014 	lw	a1,20(s8)
a0807dac:	0c20197b 	jal	a08065ec <printf>
a0807db0:	00000000 	nop
a0807db4:	3c02a081 	lui	v0,0xa081
a0807db8:	2444cf74 	addiu	a0,v0,-12428
a0807dbc:	0c20146b 	jal	a08051ac <barrier_wait>
a0807dc0:	00000000 	nop
a0807dc4:	00002021 	move	a0,zero
a0807dc8:	8fc50010 	lw	a1,16(s8)
a0807dcc:	0c201317 	jal	a0804c5c <sys_move_cursor>
a0807dd0:	00000000 	nop
a0807dd4:	3c02a081 	lui	v0,0xa081
a0807dd8:	24449f3c 	addiu	a0,v0,-24772
a0807ddc:	8fc50014 	lw	a1,20(s8)
a0807de0:	0c20197b 	jal	a08065ec <printf>
a0807de4:	00000000 	nop
a0807de8:	24040001 	li	a0,1
a0807dec:	0c2012ad 	jal	a0804ab4 <sys_sleep>
a0807df0:	00000000 	nop
a0807df4:	8fc20014 	lw	v0,20(s8)
a0807df8:	24420001 	addiu	v0,v0,1
a0807dfc:	afc20014 	sw	v0,20(s8)
a0807e00:	08201f64 	j	a0807d90 <barrier_task1+0x50>
a0807e04:	00000000 	nop

a0807e08 <barrier_task2>:
a0807e08:	27bdffe0 	addiu	sp,sp,-32
a0807e0c:	afbf001c 	sw	ra,28(sp)
a0807e10:	afbe0018 	sw	s8,24(sp)
a0807e14:	03a0f021 	move	s8,sp
a0807e18:	24020001 	li	v0,1
a0807e1c:	afc20010 	sw	v0,16(s8)
a0807e20:	3c02a081 	lui	v0,0xa081
a0807e24:	8c42cf70 	lw	v0,-12432(v0)
a0807e28:	1440000b 	bnez	v0,a0807e58 <barrier_task2+0x50>
a0807e2c:	00000000 	nop
a0807e30:	3c03a081 	lui	v1,0xa081
a0807e34:	24020001 	li	v0,1
a0807e38:	ac62cf70 	sw	v0,-12432(v1)
a0807e3c:	3c02a081 	lui	v0,0xa081
a0807e40:	8c43a6a0 	lw	v1,-22880(v0)
a0807e44:	3c02a081 	lui	v0,0xa081
a0807e48:	2444cf74 	addiu	a0,v0,-12428
a0807e4c:	00602821 	move	a1,v1
a0807e50:	0c201458 	jal	a0805160 <barrier_init>
a0807e54:	00000000 	nop
a0807e58:	afc00014 	sw	zero,20(s8)
a0807e5c:	00002021 	move	a0,zero
a0807e60:	8fc50010 	lw	a1,16(s8)
a0807e64:	0c201317 	jal	a0804c5c <sys_move_cursor>
a0807e68:	00000000 	nop
a0807e6c:	3c02a081 	lui	v0,0xa081
a0807e70:	24449f10 	addiu	a0,v0,-24816
a0807e74:	8fc50014 	lw	a1,20(s8)
a0807e78:	0c20197b 	jal	a08065ec <printf>
a0807e7c:	00000000 	nop
a0807e80:	3c02a081 	lui	v0,0xa081
a0807e84:	2444cf74 	addiu	a0,v0,-12428
a0807e88:	0c20146b 	jal	a08051ac <barrier_wait>
a0807e8c:	00000000 	nop
a0807e90:	00002021 	move	a0,zero
a0807e94:	8fc50010 	lw	a1,16(s8)
a0807e98:	0c201317 	jal	a0804c5c <sys_move_cursor>
a0807e9c:	00000000 	nop
a0807ea0:	3c02a081 	lui	v0,0xa081
a0807ea4:	24449f3c 	addiu	a0,v0,-24772
a0807ea8:	8fc50014 	lw	a1,20(s8)
a0807eac:	0c20197b 	jal	a08065ec <printf>
a0807eb0:	00000000 	nop
a0807eb4:	24040001 	li	a0,1
a0807eb8:	0c2012ad 	jal	a0804ab4 <sys_sleep>
a0807ebc:	00000000 	nop
a0807ec0:	8fc20014 	lw	v0,20(s8)
a0807ec4:	24420001 	addiu	v0,v0,1
a0807ec8:	afc20014 	sw	v0,20(s8)
a0807ecc:	08201f97 	j	a0807e5c <barrier_task2+0x54>
a0807ed0:	00000000 	nop

a0807ed4 <barrier_task3>:
a0807ed4:	27bdffe0 	addiu	sp,sp,-32
a0807ed8:	afbf001c 	sw	ra,28(sp)
a0807edc:	afbe0018 	sw	s8,24(sp)
a0807ee0:	03a0f021 	move	s8,sp
a0807ee4:	24020002 	li	v0,2
a0807ee8:	afc20010 	sw	v0,16(s8)
a0807eec:	3c02a081 	lui	v0,0xa081
a0807ef0:	8c42cf70 	lw	v0,-12432(v0)
a0807ef4:	1440000b 	bnez	v0,a0807f24 <barrier_task3+0x50>
a0807ef8:	00000000 	nop
a0807efc:	3c03a081 	lui	v1,0xa081
a0807f00:	24020001 	li	v0,1
a0807f04:	ac62cf70 	sw	v0,-12432(v1)
a0807f08:	3c02a081 	lui	v0,0xa081
a0807f0c:	8c43a6a0 	lw	v1,-22880(v0)
a0807f10:	3c02a081 	lui	v0,0xa081
a0807f14:	2444cf74 	addiu	a0,v0,-12428
a0807f18:	00602821 	move	a1,v1
a0807f1c:	0c201458 	jal	a0805160 <barrier_init>
a0807f20:	00000000 	nop
a0807f24:	afc00014 	sw	zero,20(s8)
a0807f28:	00002021 	move	a0,zero
a0807f2c:	8fc50010 	lw	a1,16(s8)
a0807f30:	0c201317 	jal	a0804c5c <sys_move_cursor>
a0807f34:	00000000 	nop
a0807f38:	3c02a081 	lui	v0,0xa081
a0807f3c:	24449f10 	addiu	a0,v0,-24816
a0807f40:	8fc50014 	lw	a1,20(s8)
a0807f44:	0c20197b 	jal	a08065ec <printf>
a0807f48:	00000000 	nop
a0807f4c:	3c02a081 	lui	v0,0xa081
a0807f50:	2444cf74 	addiu	a0,v0,-12428
a0807f54:	0c20146b 	jal	a08051ac <barrier_wait>
a0807f58:	00000000 	nop
a0807f5c:	00002021 	move	a0,zero
a0807f60:	8fc50010 	lw	a1,16(s8)
a0807f64:	0c201317 	jal	a0804c5c <sys_move_cursor>
a0807f68:	00000000 	nop
a0807f6c:	3c02a081 	lui	v0,0xa081
a0807f70:	24449f3c 	addiu	a0,v0,-24772
a0807f74:	8fc50014 	lw	a1,20(s8)
a0807f78:	0c20197b 	jal	a08065ec <printf>
a0807f7c:	00000000 	nop
a0807f80:	24040001 	li	a0,1
a0807f84:	0c2012ad 	jal	a0804ab4 <sys_sleep>
a0807f88:	00000000 	nop
a0807f8c:	8fc20014 	lw	v0,20(s8)
a0807f90:	24420001 	addiu	v0,v0,1
a0807f94:	afc20014 	sw	v0,20(s8)
a0807f98:	08201fca 	j	a0807f28 <barrier_task3+0x54>
a0807f9c:	00000000 	nop

a0807fa0 <SunQuan>:
a0807fa0:	27bdffd8 	addiu	sp,sp,-40
a0807fa4:	afbf0024 	sw	ra,36(sp)
a0807fa8:	afbe0020 	sw	s8,32(sp)
a0807fac:	03a0f021 	move	s8,sp
a0807fb0:	3c02a081 	lui	v0,0xa081
a0807fb4:	24449f88 	addiu	a0,v0,-24696
a0807fb8:	0c20148d 	jal	a0805234 <mbox_open>
a0807fbc:	00000000 	nop
a0807fc0:	afc20014 	sw	v0,20(s8)
a0807fc4:	0c201383 	jal	a0804e0c <sys_getpid>
a0807fc8:	00000000 	nop
a0807fcc:	afc20018 	sw	v0,24(s8)
a0807fd0:	27c20018 	addiu	v0,s8,24
a0807fd4:	8fc40014 	lw	a0,20(s8)
a0807fd8:	00402821 	move	a1,v0
a0807fdc:	24060004 	li	a2,4
a0807fe0:	0c2014b1 	jal	a08052c4 <mbox_send>
a0807fe4:	00000000 	nop
a0807fe8:	27c20018 	addiu	v0,s8,24
a0807fec:	8fc40014 	lw	a0,20(s8)
a0807ff0:	00402821 	move	a1,v0
a0807ff4:	24060004 	li	a2,4
a0807ff8:	0c2014b1 	jal	a08052c4 <mbox_send>
a0807ffc:	00000000 	nop
a0808000:	3c02a081 	lui	v0,0xa081
a0808004:	24449f9c 	addiu	a0,v0,-24676
a0808008:	0c20148d 	jal	a0805234 <mbox_open>
a080800c:	00000000 	nop
a0808010:	afc20010 	sw	v0,16(s8)
a0808014:	00002021 	move	a0,zero
a0808018:	00002821 	move	a1,zero
a080801c:	0c201317 	jal	a0804c5c <sys_move_cursor>
a0808020:	00000000 	nop
a0808024:	8fc30018 	lw	v1,24(s8)
a0808028:	3c02a081 	lui	v0,0xa081
a080802c:	24449fb0 	addiu	a0,v0,-24656
a0808030:	00602821 	move	a1,v1
a0808034:	0c20197b 	jal	a08065ec <printf>
a0808038:	00000000 	nop
a080803c:	27c2001c 	addiu	v0,s8,28
a0808040:	8fc40010 	lw	a0,16(s8)
a0808044:	00402821 	move	a1,v0
a0808048:	24060004 	li	a2,4
a080804c:	0c2014c6 	jal	a0805318 <mbox_recv>
a0808050:	00000000 	nop
a0808054:	00002021 	move	a0,zero
a0808058:	00002821 	move	a1,zero
a080805c:	0c201317 	jal	a0804c5c <sys_move_cursor>
a0808060:	00000000 	nop
a0808064:	8fc30018 	lw	v1,24(s8)
a0808068:	8fc6001c 	lw	a2,28(s8)
a080806c:	3c02a081 	lui	v0,0xa081
a0808070:	24449fe8 	addiu	a0,v0,-24600
a0808074:	00602821 	move	a1,v1
a0808078:	0c20197b 	jal	a08065ec <printf>
a080807c:	00000000 	nop
a0808080:	8fc2001c 	lw	v0,28(s8)
a0808084:	00402021 	move	a0,v0
a0808088:	0c2013c6 	jal	a0804f18 <sys_waitpid>
a080808c:	00000000 	nop
a0808090:	00002021 	move	a0,zero
a0808094:	00002821 	move	a1,zero
a0808098:	0c201317 	jal	a0804c5c <sys_move_cursor>
a080809c:	00000000 	nop
a08080a0:	8fc30018 	lw	v1,24(s8)
a08080a4:	3c02a081 	lui	v0,0xa081
a08080a8:	2444a020 	addiu	a0,v0,-24544
a08080ac:	00602821 	move	a1,v1
a08080b0:	0c20197b 	jal	a08065ec <printf>
a08080b4:	00000000 	nop
a08080b8:	24040001 	li	a0,1
a08080bc:	0c2012ad 	jal	a0804ab4 <sys_sleep>
a08080c0:	00000000 	nop
a08080c4:	3c02a081 	lui	v0,0xa081
a08080c8:	2444a6bc 	addiu	a0,v0,-22852
a08080cc:	0c201393 	jal	a0804e4c <sys_spawn>
a08080d0:	00000000 	nop
a08080d4:	27c20018 	addiu	v0,s8,24
a08080d8:	8fc40014 	lw	a0,20(s8)
a08080dc:	00402821 	move	a1,v0
a08080e0:	24060004 	li	a2,4
a08080e4:	0c2014b1 	jal	a08052c4 <mbox_send>
a08080e8:	00000000 	nop
a08080ec:	08202005 	j	a0808014 <SunQuan+0x74>
a08080f0:	00000000 	nop

a08080f4 <LiuBei>:
a08080f4:	27bdffd8 	addiu	sp,sp,-40
a08080f8:	afbf0024 	sw	ra,36(sp)
a08080fc:	afbe0020 	sw	s8,32(sp)
a0808100:	03a0f021 	move	s8,sp
a0808104:	3c02a081 	lui	v0,0xa081
a0808108:	24449f9c 	addiu	a0,v0,-24676
a080810c:	0c20148d 	jal	a0805234 <mbox_open>
a0808110:	00000000 	nop
a0808114:	afc20014 	sw	v0,20(s8)
a0808118:	0c201383 	jal	a0804e0c <sys_getpid>
a080811c:	00000000 	nop
a0808120:	afc20018 	sw	v0,24(s8)
a0808124:	27c20018 	addiu	v0,s8,24
a0808128:	8fc40014 	lw	a0,20(s8)
a080812c:	00402821 	move	a1,v0
a0808130:	24060004 	li	a2,4
a0808134:	0c2014b1 	jal	a08052c4 <mbox_send>
a0808138:	00000000 	nop
a080813c:	27c20018 	addiu	v0,s8,24
a0808140:	8fc40014 	lw	a0,20(s8)
a0808144:	00402821 	move	a1,v0
a0808148:	24060004 	li	a2,4
a080814c:	0c2014b1 	jal	a08052c4 <mbox_send>
a0808150:	00000000 	nop
a0808154:	3c02a081 	lui	v0,0xa081
a0808158:	24449f88 	addiu	a0,v0,-24696
a080815c:	0c20148d 	jal	a0805234 <mbox_open>
a0808160:	00000000 	nop
a0808164:	afc20010 	sw	v0,16(s8)
a0808168:	00002021 	move	a0,zero
a080816c:	24050001 	li	a1,1
a0808170:	0c201317 	jal	a0804c5c <sys_move_cursor>
a0808174:	00000000 	nop
a0808178:	8fc30018 	lw	v1,24(s8)
a080817c:	3c02a081 	lui	v0,0xa081
a0808180:	2444a050 	addiu	a0,v0,-24496
a0808184:	00602821 	move	a1,v1
a0808188:	0c20197b 	jal	a08065ec <printf>
a080818c:	00000000 	nop
a0808190:	27c2001c 	addiu	v0,s8,28
a0808194:	8fc40010 	lw	a0,16(s8)
a0808198:	00402821 	move	a1,v0
a080819c:	24060004 	li	a2,4
a08081a0:	0c2014c6 	jal	a0805318 <mbox_recv>
a08081a4:	00000000 	nop
a08081a8:	00002021 	move	a0,zero
a08081ac:	24050001 	li	a1,1
a08081b0:	0c201317 	jal	a0804c5c <sys_move_cursor>
a08081b4:	00000000 	nop
a08081b8:	8fc30018 	lw	v1,24(s8)
a08081bc:	8fc6001c 	lw	a2,28(s8)
a08081c0:	3c02a081 	lui	v0,0xa081
a08081c4:	2444a080 	addiu	a0,v0,-24448
a08081c8:	00602821 	move	a1,v1
a08081cc:	0c20197b 	jal	a08065ec <printf>
a08081d0:	00000000 	nop
a08081d4:	8fc2001c 	lw	v0,28(s8)
a08081d8:	00402021 	move	a0,v0
a08081dc:	0c2013c6 	jal	a0804f18 <sys_waitpid>
a08081e0:	00000000 	nop
a08081e4:	00002021 	move	a0,zero
a08081e8:	24050001 	li	a1,1
a08081ec:	0c201317 	jal	a0804c5c <sys_move_cursor>
a08081f0:	00000000 	nop
a08081f4:	8fc30018 	lw	v1,24(s8)
a08081f8:	3c02a081 	lui	v0,0xa081
a08081fc:	2444a0b0 	addiu	a0,v0,-24400
a0808200:	00602821 	move	a1,v1
a0808204:	0c20197b 	jal	a08065ec <printf>
a0808208:	00000000 	nop
a080820c:	24040001 	li	a0,1
a0808210:	0c2012ad 	jal	a0804ab4 <sys_sleep>
a0808214:	00000000 	nop
a0808218:	3c02a081 	lui	v0,0xa081
a080821c:	2444a6b0 	addiu	a0,v0,-22864
a0808220:	0c201393 	jal	a0804e4c <sys_spawn>
a0808224:	00000000 	nop
a0808228:	27c20018 	addiu	v0,s8,24
a080822c:	8fc40014 	lw	a0,20(s8)
a0808230:	00402821 	move	a1,v0
a0808234:	24060004 	li	a2,4
a0808238:	0c2014b1 	jal	a08052c4 <mbox_send>
a080823c:	00000000 	nop
a0808240:	0820205a 	j	a0808168 <LiuBei+0x74>
a0808244:	00000000 	nop

a0808248 <CaoCao>:
a0808248:	27bdffc0 	addiu	sp,sp,-64
a080824c:	afbf003c 	sw	ra,60(sp)
a0808250:	afbe0038 	sw	s8,56(sp)
a0808254:	03a0f021 	move	s8,sp
a0808258:	0c201383 	jal	a0804e0c <sys_getpid>
a080825c:	00000000 	nop
a0808260:	afc2001c 	sw	v0,28(s8)
a0808264:	3c02a081 	lui	v0,0xa081
a0808268:	24449f88 	addiu	a0,v0,-24696
a080826c:	0c20148d 	jal	a0805234 <mbox_open>
a0808270:	00000000 	nop
a0808274:	afc20018 	sw	v0,24(s8)
a0808278:	3c02a081 	lui	v0,0xa081
a080827c:	24449f9c 	addiu	a0,v0,-24676
a0808280:	0c20148d 	jal	a0805234 <mbox_open>
a0808284:	00000000 	nop
a0808288:	afc20014 	sw	v0,20(s8)
a080828c:	27c20024 	addiu	v0,s8,36
a0808290:	8fc40018 	lw	a0,24(s8)
a0808294:	00402821 	move	a1,v0
a0808298:	24060004 	li	a2,4
a080829c:	0c2014c6 	jal	a0805318 <mbox_recv>
a08082a0:	00000000 	nop
a08082a4:	27c20028 	addiu	v0,s8,40
a08082a8:	8fc40014 	lw	a0,20(s8)
a08082ac:	00402821 	move	a1,v0
a08082b0:	24060004 	li	a2,4
a08082b4:	0c2014c6 	jal	a0805318 <mbox_recv>
a08082b8:	00000000 	nop
a08082bc:	afc00010 	sw	zero,16(s8)
a08082c0:	00002021 	move	a0,zero
a08082c4:	24050002 	li	a1,2
a08082c8:	0c201317 	jal	a0804c5c <sys_move_cursor>
a08082cc:	00000000 	nop
a08082d0:	3c02a081 	lui	v0,0xa081
a08082d4:	2444a0e0 	addiu	a0,v0,-24352
a08082d8:	8fc5001c 	lw	a1,28(s8)
a08082dc:	0c20197b 	jal	a08065ec <printf>
a08082e0:	00000000 	nop
a08082e4:	00002021 	move	a0,zero
a08082e8:	24050003 	li	a1,3
a08082ec:	0c201317 	jal	a0804c5c <sys_move_cursor>
a08082f0:	00000000 	nop
a08082f4:	3c02a081 	lui	v0,0xa081
a08082f8:	2444a108 	addiu	a0,v0,-24312
a08082fc:	8fc5001c 	lw	a1,28(s8)
a0808300:	0c20197b 	jal	a08065ec <printf>
a0808304:	00000000 	nop
a0808308:	8fc30010 	lw	v1,16(s8)
a080830c:	000317c3 	sra	v0,v1,0x1f
a0808310:	000227c2 	srl	a0,v0,0x1f
a0808314:	00641021 	addu	v0,v1,a0
a0808318:	30420001 	andi	v0,v0,0x1
a080831c:	00441023 	subu	v0,v0,a0
a0808320:	afc20030 	sw	v0,48(s8)
a0808324:	8fc20030 	lw	v0,48(s8)
a0808328:	10400007 	beqz	v0,a0808348 <CaoCao+0x100>
a080832c:	00000000 	nop
a0808330:	24020001 	li	v0,1
a0808334:	8fc30030 	lw	v1,48(s8)
a0808338:	10620030 	beq	v1,v0,a08083fc <CaoCao+0x1b4>
a080833c:	00000000 	nop
a0808340:	0820212a 	j	a08084a8 <CaoCao+0x260>
a0808344:	00000000 	nop
a0808348:	00002021 	move	a0,zero
a080834c:	24050004 	li	a1,4
a0808350:	0c201317 	jal	a0804c5c <sys_move_cursor>
a0808354:	00000000 	nop
a0808358:	8fc30024 	lw	v1,36(s8)
a080835c:	3c02a081 	lui	v0,0xa081
a0808360:	2444a12c 	addiu	a0,v0,-24276
a0808364:	8fc5001c 	lw	a1,28(s8)
a0808368:	00603021 	move	a2,v1
a080836c:	0c20197b 	jal	a08065ec <printf>
a0808370:	00000000 	nop
a0808374:	24040001 	li	a0,1
a0808378:	0c2012ad 	jal	a0804ab4 <sys_sleep>
a080837c:	00000000 	nop
a0808380:	00002021 	move	a0,zero
a0808384:	24050005 	li	a1,5
a0808388:	0c201317 	jal	a0804c5c <sys_move_cursor>
a080838c:	00000000 	nop
a0808390:	3c02a081 	lui	v0,0xa081
a0808394:	2444a158 	addiu	a0,v0,-24232
a0808398:	0c20197b 	jal	a08065ec <printf>
a080839c:	00000000 	nop
a08083a0:	8fc20024 	lw	v0,36(s8)
a08083a4:	00402021 	move	a0,v0
a08083a8:	0c2013a5 	jal	a0804e94 <sys_kill>
a08083ac:	00000000 	nop
a08083b0:	27c20024 	addiu	v0,s8,36
a08083b4:	8fc40018 	lw	a0,24(s8)
a08083b8:	00402821 	move	a1,v0
a08083bc:	24060004 	li	a2,4
a08083c0:	0c2014c6 	jal	a0805318 <mbox_recv>
a08083c4:	00000000 	nop
a08083c8:	00002021 	move	a0,zero
a08083cc:	24050006 	li	a1,6
a08083d0:	0c201317 	jal	a0804c5c <sys_move_cursor>
a08083d4:	00000000 	nop
a08083d8:	8fc30024 	lw	v1,36(s8)
a08083dc:	3c02a081 	lui	v0,0xa081
a08083e0:	2444a194 	addiu	a0,v0,-24172
a08083e4:	8fc5001c 	lw	a1,28(s8)
a08083e8:	00603021 	move	a2,v1
a08083ec:	0c20197b 	jal	a08065ec <printf>
a08083f0:	00000000 	nop
a08083f4:	0820212a 	j	a08084a8 <CaoCao+0x260>
a08083f8:	00000000 	nop
a08083fc:	00002021 	move	a0,zero
a0808400:	24050004 	li	a1,4
a0808404:	0c201317 	jal	a0804c5c <sys_move_cursor>
a0808408:	00000000 	nop
a080840c:	8fc30028 	lw	v1,40(s8)
a0808410:	3c02a081 	lui	v0,0xa081
a0808414:	2444a1cc 	addiu	a0,v0,-24116
a0808418:	8fc5001c 	lw	a1,28(s8)
a080841c:	00603021 	move	a2,v1
a0808420:	0c20197b 	jal	a08065ec <printf>
a0808424:	00000000 	nop
a0808428:	24040001 	li	a0,1
a080842c:	0c2012ad 	jal	a0804ab4 <sys_sleep>
a0808430:	00000000 	nop
a0808434:	00002021 	move	a0,zero
a0808438:	24050005 	li	a1,5
a080843c:	0c201317 	jal	a0804c5c <sys_move_cursor>
a0808440:	00000000 	nop
a0808444:	3c02a081 	lui	v0,0xa081
a0808448:	2444a1f4 	addiu	a0,v0,-24076
a080844c:	0c20197b 	jal	a08065ec <printf>
a0808450:	00000000 	nop
a0808454:	8fc20028 	lw	v0,40(s8)
a0808458:	00402021 	move	a0,v0
a080845c:	0c2013a5 	jal	a0804e94 <sys_kill>
a0808460:	00000000 	nop
a0808464:	00002021 	move	a0,zero
a0808468:	24050006 	li	a1,6
a080846c:	0c201317 	jal	a0804c5c <sys_move_cursor>
a0808470:	00000000 	nop
a0808474:	27c20028 	addiu	v0,s8,40
a0808478:	8fc40014 	lw	a0,20(s8)
a080847c:	00402821 	move	a1,v0
a0808480:	24060004 	li	a2,4
a0808484:	0c2014c6 	jal	a0805318 <mbox_recv>
a0808488:	00000000 	nop
a080848c:	8fc30028 	lw	v1,40(s8)
a0808490:	3c02a081 	lui	v0,0xa081
a0808494:	2444a22c 	addiu	a0,v0,-24020
a0808498:	8fc5001c 	lw	a1,28(s8)
a080849c:	00603021 	move	a2,v1
a08084a0:	0c20197b 	jal	a08065ec <printf>
a08084a4:	00000000 	nop
a08084a8:	24040002 	li	a0,2
a08084ac:	0c2012ad 	jal	a0804ab4 <sys_sleep>
a08084b0:	00000000 	nop
a08084b4:	8fc20010 	lw	v0,16(s8)
a08084b8:	24420001 	addiu	v0,v0,1
a08084bc:	afc20010 	sw	v0,16(s8)
a08084c0:	082020b0 	j	a08082c0 <CaoCao+0x78>
a08084c4:	00000000 	nop
	...

a08084d0 <rand>:
a08084d0:	27bdffe0 	addiu	sp,sp,-32
a08084d4:	afbf001c 	sw	ra,28(sp)
a08084d8:	afbe0018 	sw	s8,24(sp)
a08084dc:	03a0f021 	move	s8,sp
a08084e0:	0c20125a 	jal	a0804968 <get_timer>
a08084e4:	00000000 	nop
a08084e8:	afc20010 	sw	v0,16(s8)
a08084ec:	8fc20010 	lw	v0,16(s8)
a08084f0:	03c0e821 	move	sp,s8
a08084f4:	8fbf001c 	lw	ra,28(sp)
a08084f8:	8fbe0018 	lw	s8,24(sp)
a08084fc:	27bd0020 	addiu	sp,sp,32
a0808500:	03e00008 	jr	ra
a0808504:	00000000 	nop

a0808508 <disable_interrupt>:
a0808508:	27bdffe0 	addiu	sp,sp,-32
a080850c:	afbf001c 	sw	ra,28(sp)
a0808510:	afbe0018 	sw	s8,24(sp)
a0808514:	03a0f021 	move	s8,sp
a0808518:	0c20022f 	jal	a08008bc <get_cp0_status>
a080851c:	00000000 	nop
a0808520:	afc20010 	sw	v0,16(s8)
a0808524:	8fc30010 	lw	v1,16(s8)
a0808528:	2402fffe 	li	v0,-2
a080852c:	00621024 	and	v0,v1,v0
a0808530:	afc20010 	sw	v0,16(s8)
a0808534:	8fc40010 	lw	a0,16(s8)
a0808538:	0c200241 	jal	a0800904 <set_cp0_status>
a080853c:	00000000 	nop
a0808540:	03c0e821 	move	sp,s8
a0808544:	8fbf001c 	lw	ra,28(sp)
a0808548:	8fbe0018 	lw	s8,24(sp)
a080854c:	27bd0020 	addiu	sp,sp,32
a0808550:	03e00008 	jr	ra
a0808554:	00000000 	nop

a0808558 <enable_interrupt>:
a0808558:	27bdffe0 	addiu	sp,sp,-32
a080855c:	afbf001c 	sw	ra,28(sp)
a0808560:	afbe0018 	sw	s8,24(sp)
a0808564:	03a0f021 	move	s8,sp
a0808568:	0c20022f 	jal	a08008bc <get_cp0_status>
a080856c:	00000000 	nop
a0808570:	afc20010 	sw	v0,16(s8)
a0808574:	8fc20010 	lw	v0,16(s8)
a0808578:	34420001 	ori	v0,v0,0x1
a080857c:	afc20010 	sw	v0,16(s8)
a0808580:	8fc40010 	lw	a0,16(s8)
a0808584:	0c200241 	jal	a0800904 <set_cp0_status>
a0808588:	00000000 	nop
a080858c:	03c0e821 	move	sp,s8
a0808590:	8fbf001c 	lw	ra,28(sp)
a0808594:	8fbe0018 	lw	s8,24(sp)
a0808598:	27bd0020 	addiu	sp,sp,32
a080859c:	03e00008 	jr	ra
a08085a0:	00000000 	nop

a08085a4 <read_uart_ch>:
a08085a4:	27bdffe8 	addiu	sp,sp,-24
a08085a8:	afbe0014 	sw	s8,20(sp)
a08085ac:	03a0f021 	move	s8,sp
a08085b0:	a3c00008 	sb	zero,8(s8)
a08085b4:	3c02bfe4 	lui	v0,0xbfe4
a08085b8:	34428000 	ori	v0,v0,0x8000
a08085bc:	afc20004 	sw	v0,4(s8)
a08085c0:	3c02bfe4 	lui	v0,0xbfe4
a08085c4:	34428005 	ori	v0,v0,0x8005
a08085c8:	afc20000 	sw	v0,0(s8)
a08085cc:	08202178 	j	a08085e0 <read_uart_ch+0x3c>
a08085d0:	00000000 	nop
a08085d4:	8fc20004 	lw	v0,4(s8)
a08085d8:	90420000 	lbu	v0,0(v0)
a08085dc:	a3c20008 	sb	v0,8(s8)
a08085e0:	8fc20000 	lw	v0,0(s8)
a08085e4:	90420000 	lbu	v0,0(v0)
a08085e8:	30420001 	andi	v0,v0,0x1
a08085ec:	304200ff 	andi	v0,v0,0xff
a08085f0:	1440fff8 	bnez	v0,a08085d4 <read_uart_ch+0x30>
a08085f4:	00000000 	nop
a08085f8:	83c20008 	lb	v0,8(s8)
a08085fc:	03c0e821 	move	sp,s8
a0808600:	8fbe0014 	lw	s8,20(sp)
a0808604:	27bd0018 	addiu	sp,sp,24
a0808608:	03e00008 	jr	ra
a080860c:	00000000 	nop

a0808610 <scanf>:
a0808610:	27bdffc8 	addiu	sp,sp,-56
a0808614:	afbf0034 	sw	ra,52(sp)
a0808618:	afbe0030 	sw	s8,48(sp)
a080861c:	03a0f021 	move	s8,sp
a0808620:	afc40038 	sw	a0,56(s8)
a0808624:	afc00018 	sw	zero,24(s8)
a0808628:	afc00014 	sw	zero,20(s8)
a080862c:	0c202142 	jal	a0808508 <disable_interrupt>
a0808630:	00000000 	nop
a0808634:	3c02a081 	lui	v0,0xa081
a0808638:	8c43a750 	lw	v1,-22704(v0)
a080863c:	000317c3 	sra	v0,v1,0x1f
a0808640:	00022782 	srl	a0,v0,0x1e
a0808644:	00641021 	addu	v0,v1,a0
a0808648:	30420003 	andi	v0,v0,0x3
a080864c:	00441023 	subu	v0,v0,a0
a0808650:	24420001 	addiu	v0,v0,1
a0808654:	24040001 	li	a0,1
a0808658:	00402821 	move	a1,v0
a080865c:	0c20028c 	jal	a0800a30 <vt100_move_cursor>
a0808660:	00000000 	nop
a0808664:	3c02a081 	lui	v0,0xa081
a0808668:	2444a260 	addiu	a0,v0,-23968
a080866c:	0c201959 	jal	a0806564 <printk>
a0808670:	00000000 	nop
a0808674:	3c02a081 	lui	v0,0xa081
a0808678:	8c43a750 	lw	v1,-22704(v0)
a080867c:	000317c3 	sra	v0,v1,0x1f
a0808680:	00022782 	srl	a0,v0,0x1e
a0808684:	00641021 	addu	v0,v1,a0
a0808688:	30420003 	andi	v0,v0,0x3
a080868c:	00441023 	subu	v0,v0,a0
a0808690:	24420001 	addiu	v0,v0,1
a0808694:	24040001 	li	a0,1
a0808698:	00402821 	move	a1,v0
a080869c:	0c20028c 	jal	a0800a30 <vt100_move_cursor>
a08086a0:	00000000 	nop
a08086a4:	3c02a081 	lui	v0,0xa081
a08086a8:	2444a278 	addiu	a0,v0,-23944
a08086ac:	0c201959 	jal	a0806564 <printk>
a08086b0:	00000000 	nop
a08086b4:	3c02a081 	lui	v0,0xa081
a08086b8:	8c42a750 	lw	v0,-22704(v0)
a08086bc:	24430001 	addiu	v1,v0,1
a08086c0:	3c02a081 	lui	v0,0xa081
a08086c4:	ac43a750 	sw	v1,-22704(v0)
a08086c8:	0c202169 	jal	a08085a4 <read_uart_ch>
a08086cc:	00000000 	nop
a08086d0:	a3c20010 	sb	v0,16(s8)
a08086d4:	83c30010 	lb	v1,16(s8)
a08086d8:	3c02a081 	lui	v0,0xa081
a08086dc:	2444a288 	addiu	a0,v0,-23928
a08086e0:	00602821 	move	a1,v1
a08086e4:	0c201959 	jal	a0806564 <printk>
a08086e8:	00000000 	nop
a08086ec:	83c20010 	lb	v0,16(s8)
a08086f0:	1040fff5 	beqz	v0,a08086c8 <scanf+0xb8>
a08086f4:	00000000 	nop
a08086f8:	8fc30018 	lw	v1,24(s8)
a08086fc:	27c20010 	addiu	v0,s8,16
a0808700:	00431821 	addu	v1,v0,v1
a0808704:	93c20010 	lbu	v0,16(s8)
a0808708:	a062000c 	sb	v0,12(v1)
a080870c:	8fc20018 	lw	v0,24(s8)
a0808710:	24420001 	addiu	v0,v0,1
a0808714:	afc20018 	sw	v0,24(s8)
a0808718:	83c30010 	lb	v1,16(s8)
a080871c:	2402000d 	li	v0,13
a0808720:	1462ffe9 	bne	v1,v0,a08086c8 <scanf+0xb8>
a0808724:	00000000 	nop
a0808728:	8fc20018 	lw	v0,24(s8)
a080872c:	2442ffff 	addiu	v0,v0,-1
a0808730:	afc20018 	sw	v0,24(s8)
a0808734:	24020002 	li	v0,2
a0808738:	afc20018 	sw	v0,24(s8)
a080873c:	0820221d 	j	a0808874 <scanf+0x264>
a0808740:	00000000 	nop
a0808744:	8fc30018 	lw	v1,24(s8)
a0808748:	27c20010 	addiu	v0,s8,16
a080874c:	00431021 	addu	v0,v0,v1
a0808750:	8042000c 	lb	v0,12(v0)
a0808754:	28420030 	slti	v0,v0,48
a0808758:	14400013 	bnez	v0,a08087a8 <scanf+0x198>
a080875c:	00000000 	nop
a0808760:	8fc30018 	lw	v1,24(s8)
a0808764:	27c20010 	addiu	v0,s8,16
a0808768:	00431021 	addu	v0,v0,v1
a080876c:	8042000c 	lb	v0,12(v0)
a0808770:	2842003a 	slti	v0,v0,58
a0808774:	1040000c 	beqz	v0,a08087a8 <scanf+0x198>
a0808778:	00000000 	nop
a080877c:	8fc30018 	lw	v1,24(s8)
a0808780:	27c20010 	addiu	v0,s8,16
a0808784:	00431021 	addu	v0,v0,v1
a0808788:	8042000c 	lb	v0,12(v0)
a080878c:	2443ffd0 	addiu	v1,v0,-48
a0808790:	8fc20014 	lw	v0,20(s8)
a0808794:	00021100 	sll	v0,v0,0x4
a0808798:	00621021 	addu	v0,v1,v0
a080879c:	afc20014 	sw	v0,20(s8)
a08087a0:	0820221a 	j	a0808868 <scanf+0x258>
a08087a4:	00000000 	nop
a08087a8:	8fc30018 	lw	v1,24(s8)
a08087ac:	27c20010 	addiu	v0,s8,16
a08087b0:	00431021 	addu	v0,v0,v1
a08087b4:	8042000c 	lb	v0,12(v0)
a08087b8:	28420061 	slti	v0,v0,97
a08087bc:	14400013 	bnez	v0,a080880c <scanf+0x1fc>
a08087c0:	00000000 	nop
a08087c4:	8fc30018 	lw	v1,24(s8)
a08087c8:	27c20010 	addiu	v0,s8,16
a08087cc:	00431021 	addu	v0,v0,v1
a08087d0:	8042000c 	lb	v0,12(v0)
a08087d4:	28420067 	slti	v0,v0,103
a08087d8:	1040000c 	beqz	v0,a080880c <scanf+0x1fc>
a08087dc:	00000000 	nop
a08087e0:	8fc30018 	lw	v1,24(s8)
a08087e4:	27c20010 	addiu	v0,s8,16
a08087e8:	00431021 	addu	v0,v0,v1
a08087ec:	8042000c 	lb	v0,12(v0)
a08087f0:	2443ffa9 	addiu	v1,v0,-87
a08087f4:	8fc20014 	lw	v0,20(s8)
a08087f8:	00021100 	sll	v0,v0,0x4
a08087fc:	00621021 	addu	v0,v1,v0
a0808800:	afc20014 	sw	v0,20(s8)
a0808804:	0820221a 	j	a0808868 <scanf+0x258>
a0808808:	00000000 	nop
a080880c:	8fc30018 	lw	v1,24(s8)
a0808810:	27c20010 	addiu	v0,s8,16
a0808814:	00431021 	addu	v0,v0,v1
a0808818:	8042000c 	lb	v0,12(v0)
a080881c:	28420041 	slti	v0,v0,65
a0808820:	14400011 	bnez	v0,a0808868 <scanf+0x258>
a0808824:	00000000 	nop
a0808828:	8fc30018 	lw	v1,24(s8)
a080882c:	27c20010 	addiu	v0,s8,16
a0808830:	00431021 	addu	v0,v0,v1
a0808834:	8042000c 	lb	v0,12(v0)
a0808838:	28420047 	slti	v0,v0,71
a080883c:	1040000a 	beqz	v0,a0808868 <scanf+0x258>
a0808840:	00000000 	nop
a0808844:	8fc30018 	lw	v1,24(s8)
a0808848:	27c20010 	addiu	v0,s8,16
a080884c:	00431021 	addu	v0,v0,v1
a0808850:	8042000c 	lb	v0,12(v0)
a0808854:	2443ffc9 	addiu	v1,v0,-55
a0808858:	8fc20014 	lw	v0,20(s8)
a080885c:	00021100 	sll	v0,v0,0x4
a0808860:	00621021 	addu	v0,v1,v0
a0808864:	afc20014 	sw	v0,20(s8)
a0808868:	8fc20018 	lw	v0,24(s8)
a080886c:	24420001 	addiu	v0,v0,1
a0808870:	afc20018 	sw	v0,24(s8)
a0808874:	8fc30018 	lw	v1,24(s8)
a0808878:	27c20010 	addiu	v0,s8,16
a080887c:	00431021 	addu	v0,v0,v1
a0808880:	8043000c 	lb	v1,12(v0)
a0808884:	2402000d 	li	v0,13
a0808888:	1462ffae 	bne	v1,v0,a0808744 <scanf+0x134>
a080888c:	00000000 	nop
a0808890:	8fc30038 	lw	v1,56(s8)
a0808894:	8fc20014 	lw	v0,20(s8)
a0808898:	ac620000 	sw	v0,0(v1)
a080889c:	0c202156 	jal	a0808558 <enable_interrupt>
a08088a0:	00000000 	nop
a08088a4:	03c0e821 	move	sp,s8
a08088a8:	8fbf0034 	lw	ra,52(sp)
a08088ac:	8fbe0030 	lw	s8,48(sp)
a08088b0:	27bd0038 	addiu	sp,sp,56
a08088b4:	03e00008 	jr	ra
a08088b8:	00000000 	nop

a08088bc <rw_task1>:
a08088bc:	27bdffc0 	addiu	sp,sp,-64
a08088c0:	afbf003c 	sw	ra,60(sp)
a08088c4:	afbe0038 	sw	s8,56(sp)
a08088c8:	afb00034 	sw	s0,52(sp)
a08088cc:	03a0f021 	move	s8,sp
a08088d0:	afc0001c 	sw	zero,28(s8)
a08088d4:	afc00018 	sw	zero,24(s8)
a08088d8:	afc00014 	sw	zero,20(s8)
a08088dc:	afc00014 	sw	zero,20(s8)
a08088e0:	0820226d 	j	a08089b4 <rw_task1+0xf8>
a08088e4:	00000000 	nop
a08088e8:	27c20020 	addiu	v0,s8,32
a08088ec:	00402021 	move	a0,v0
a08088f0:	0c202184 	jal	a0808610 <scanf>
a08088f4:	00000000 	nop
a08088f8:	8fd00014 	lw	s0,20(s8)
a08088fc:	0c202134 	jal	a08084d0 <rand>
a0808900:	00000000 	nop
a0808904:	afc2001c 	sw	v0,28(s8)
a0808908:	00101080 	sll	v0,s0,0x2
a080890c:	27c30010 	addiu	v1,s8,16
a0808910:	00621021 	addu	v0,v1,v0
a0808914:	8fc3001c 	lw	v1,28(s8)
a0808918:	ac430014 	sw	v1,20(v0)
a080891c:	8fc20020 	lw	v0,32(s8)
a0808920:	00401821 	move	v1,v0
a0808924:	8fc2001c 	lw	v0,28(s8)
a0808928:	ac620000 	sw	v0,0(v1)
a080892c:	8fc30018 	lw	v1,24(s8)
a0808930:	8fc20014 	lw	v0,20(s8)
a0808934:	00621021 	addu	v0,v1,v0
a0808938:	24040019 	li	a0,25
a080893c:	00402821 	move	a1,v0
a0808940:	0c201317 	jal	a0804c5c <sys_move_cursor>
a0808944:	00000000 	nop
a0808948:	8fc30020 	lw	v1,32(s8)
a080894c:	3c02a081 	lui	v0,0xa081
a0808950:	2444a28c 	addiu	a0,v0,-23924
a0808954:	00602821 	move	a1,v1
a0808958:	8fc6001c 	lw	a2,28(s8)
a080895c:	0c20197b 	jal	a08065ec <printf>
a0808960:	00000000 	nop
a0808964:	afc00010 	sw	zero,16(s8)
a0808968:	08202266 	j	a0808998 <rw_task1+0xdc>
a080896c:	00000000 	nop
a0808970:	8fc30018 	lw	v1,24(s8)
a0808974:	8fc20014 	lw	v0,20(s8)
a0808978:	00621021 	addu	v0,v1,v0
a080897c:	00002021 	move	a0,zero
a0808980:	00402821 	move	a1,v0
a0808984:	0c201317 	jal	a0804c5c <sys_move_cursor>
a0808988:	00000000 	nop
a080898c:	8fc20010 	lw	v0,16(s8)
a0808990:	24420001 	addiu	v0,v0,1
a0808994:	afc20010 	sw	v0,16(s8)
a0808998:	8fc20010 	lw	v0,16(s8)
a080899c:	28420096 	slti	v0,v0,150
a08089a0:	1440fff3 	bnez	v0,a0808970 <rw_task1+0xb4>
a08089a4:	00000000 	nop
a08089a8:	8fc20014 	lw	v0,20(s8)
a08089ac:	24420001 	addiu	v0,v0,1
a08089b0:	afc20014 	sw	v0,20(s8)
a08089b4:	8fc20014 	lw	v0,20(s8)
a08089b8:	28420002 	slti	v0,v0,2
a08089bc:	1440ffca 	bnez	v0,a08088e8 <rw_task1+0x2c>
a08089c0:	00000000 	nop
a08089c4:	24020002 	li	v0,2
a08089c8:	afc20018 	sw	v0,24(s8)
a08089cc:	afc00014 	sw	zero,20(s8)
a08089d0:	082022c4 	j	a0808b10 <rw_task1+0x254>
a08089d4:	00000000 	nop
a08089d8:	27c20020 	addiu	v0,s8,32
a08089dc:	00402021 	move	a0,v0
a08089e0:	0c202184 	jal	a0808610 <scanf>
a08089e4:	00000000 	nop
a08089e8:	8fc20014 	lw	v0,20(s8)
a08089ec:	24430002 	addiu	v1,v0,2
a08089f0:	8fc20020 	lw	v0,32(s8)
a08089f4:	8c440000 	lw	a0,0(v0)
a08089f8:	00031080 	sll	v0,v1,0x2
a08089fc:	27c30010 	addiu	v1,s8,16
a0808a00:	00621021 	addu	v0,v1,v0
a0808a04:	ac440014 	sw	a0,20(v0)
a0808a08:	8fc30018 	lw	v1,24(s8)
a0808a0c:	8fc20014 	lw	v0,20(s8)
a0808a10:	00621021 	addu	v0,v1,v0
a0808a14:	24040019 	li	a0,25
a0808a18:	00402821 	move	a1,v0
a0808a1c:	0c201317 	jal	a0804c5c <sys_move_cursor>
a0808a20:	00000000 	nop
a0808a24:	8fc20014 	lw	v0,20(s8)
a0808a28:	24420002 	addiu	v0,v0,2
a0808a2c:	00021080 	sll	v0,v0,0x2
a0808a30:	27c30010 	addiu	v1,s8,16
a0808a34:	00621021 	addu	v0,v1,v0
a0808a38:	8c440014 	lw	a0,20(v0)
a0808a3c:	8fc20014 	lw	v0,20(s8)
a0808a40:	00021080 	sll	v0,v0,0x2
a0808a44:	27c30010 	addiu	v1,s8,16
a0808a48:	00621021 	addu	v0,v1,v0
a0808a4c:	8c420014 	lw	v0,20(v0)
a0808a50:	1482000d 	bne	a0,v0,a0808a88 <rw_task1+0x1cc>
a0808a54:	00000000 	nop
a0808a58:	8fc20014 	lw	v0,20(s8)
a0808a5c:	00021080 	sll	v0,v0,0x2
a0808a60:	27c30010 	addiu	v1,s8,16
a0808a64:	00621021 	addu	v0,v1,v0
a0808a68:	8c430014 	lw	v1,20(v0)
a0808a6c:	3c02a081 	lui	v0,0xa081
a0808a70:	2444a2a8 	addiu	a0,v0,-23896
a0808a74:	00602821 	move	a1,v1
a0808a78:	0c20197b 	jal	a08065ec <printf>
a0808a7c:	00000000 	nop
a0808a80:	082022ad 	j	a0808ab4 <rw_task1+0x1f8>
a0808a84:	00000000 	nop
a0808a88:	8fc20014 	lw	v0,20(s8)
a0808a8c:	24420002 	addiu	v0,v0,2
a0808a90:	00021080 	sll	v0,v0,0x2
a0808a94:	27c30010 	addiu	v1,s8,16
a0808a98:	00621021 	addu	v0,v1,v0
a0808a9c:	8c430014 	lw	v1,20(v0)
a0808aa0:	3c02a081 	lui	v0,0xa081
a0808aa4:	2444a2c4 	addiu	a0,v0,-23868
a0808aa8:	00602821 	move	a1,v1
a0808aac:	0c20197b 	jal	a08065ec <printf>
a0808ab0:	00000000 	nop
a0808ab4:	8fc20014 	lw	v0,20(s8)
a0808ab8:	14400012 	bnez	v0,a0808b04 <rw_task1+0x248>
a0808abc:	00000000 	nop
a0808ac0:	afc00010 	sw	zero,16(s8)
a0808ac4:	082022bd 	j	a0808af4 <rw_task1+0x238>
a0808ac8:	00000000 	nop
a0808acc:	8fc30018 	lw	v1,24(s8)
a0808ad0:	8fc20014 	lw	v0,20(s8)
a0808ad4:	00621021 	addu	v0,v1,v0
a0808ad8:	00002021 	move	a0,zero
a0808adc:	00402821 	move	a1,v0
a0808ae0:	0c201317 	jal	a0804c5c <sys_move_cursor>
a0808ae4:	00000000 	nop
a0808ae8:	8fc20010 	lw	v0,16(s8)
a0808aec:	24420001 	addiu	v0,v0,1
a0808af0:	afc20010 	sw	v0,16(s8)
a0808af4:	8fc20010 	lw	v0,16(s8)
a0808af8:	28420096 	slti	v0,v0,150
a0808afc:	1440fff3 	bnez	v0,a0808acc <rw_task1+0x210>
a0808b00:	00000000 	nop
a0808b04:	8fc20014 	lw	v0,20(s8)
a0808b08:	24420001 	addiu	v0,v0,1
a0808b0c:	afc20014 	sw	v0,20(s8)
a0808b10:	8fc20014 	lw	v0,20(s8)
a0808b14:	28420002 	slti	v0,v0,2
a0808b18:	1440ffaf 	bnez	v0,a08089d8 <rw_task1+0x11c>
a0808b1c:	00000000 	nop
a0808b20:	082022c8 	j	a0808b20 <rw_task1+0x264>
a0808b24:	00000000 	nop
	...

a0808b30 <clear_interrupt>:
a0808b30:	27bdffe0 	addiu	sp,sp,-32
a0808b34:	afbf001c 	sw	ra,28(sp)
a0808b38:	afbe0018 	sw	s8,24(sp)
a0808b3c:	03a0f021 	move	s8,sp
a0808b40:	3c02bfe1 	lui	v0,0xbfe1
a0808b44:	34441014 	ori	a0,v0,0x1014
a0808b48:	0c200484 	jal	a0801210 <reg_read_32>
a0808b4c:	00000000 	nop
a0808b50:	afc20010 	sw	v0,16(s8)
a0808b54:	3c02bfe1 	lui	v0,0xbfe1
a0808b58:	34441014 	ori	a0,v0,0x1014
a0808b5c:	8fc50010 	lw	a1,16(s8)
a0808b60:	0c2004a1 	jal	a0801284 <reg_write_32>
a0808b64:	00000000 	nop
a0808b68:	03c0e821 	move	sp,s8
a0808b6c:	8fbf001c 	lw	ra,28(sp)
a0808b70:	8fbe0018 	lw	s8,24(sp)
a0808b74:	27bd0020 	addiu	sp,sp,32
a0808b78:	03e00008 	jr	ra
a0808b7c:	00000000 	nop

a0808b80 <send_desc_init>:
a0808b80:	27bdfff0 	addiu	sp,sp,-16
a0808b84:	afbe000c 	sw	s8,12(sp)
a0808b88:	03a0f021 	move	s8,sp
a0808b8c:	afc40010 	sw	a0,16(s8)
a0808b90:	afc00004 	sw	zero,4(s8)
a0808b94:	082022fd 	j	a0808bf4 <send_desc_init+0x74>
a0808b98:	00000000 	nop
a0808b9c:	afc00000 	sw	zero,0(s8)
a0808ba0:	082022f6 	j	a0808bd8 <send_desc_init+0x58>
a0808ba4:	00000000 	nop
a0808ba8:	8fc20004 	lw	v0,4(s8)
a0808bac:	8fc30000 	lw	v1,0(s8)
a0808bb0:	3c04a081 	lui	a0,0xa081
a0808bb4:	00021200 	sll	v0,v0,0x8
a0808bb8:	00431021 	addu	v0,v0,v1
a0808bbc:	00021880 	sll	v1,v0,0x2
a0808bc0:	2482d790 	addiu	v0,a0,-10352
a0808bc4:	00621021 	addu	v0,v1,v0
a0808bc8:	ac400000 	sw	zero,0(v0)
a0808bcc:	8fc20000 	lw	v0,0(s8)
a0808bd0:	24420001 	addiu	v0,v0,1
a0808bd4:	afc20000 	sw	v0,0(s8)
a0808bd8:	8fc20000 	lw	v0,0(s8)
a0808bdc:	28420100 	slti	v0,v0,256
a0808be0:	1440fff1 	bnez	v0,a0808ba8 <send_desc_init+0x28>
a0808be4:	00000000 	nop
a0808be8:	8fc20004 	lw	v0,4(s8)
a0808bec:	24420001 	addiu	v0,v0,1
a0808bf0:	afc20004 	sw	v0,4(s8)
a0808bf4:	8fc20004 	lw	v0,4(s8)
a0808bf8:	28420040 	slti	v0,v0,64
a0808bfc:	1440ffe7 	bnez	v0,a0808b9c <send_desc_init+0x1c>
a0808c00:	00000000 	nop
a0808c04:	afc00004 	sw	zero,4(s8)
a0808c08:	08202338 	j	a0808ce0 <send_desc_init+0x160>
a0808c0c:	00000000 	nop
a0808c10:	8fc20004 	lw	v0,4(s8)
a0808c14:	3c03a081 	lui	v1,0xa081
a0808c18:	00022100 	sll	a0,v0,0x4
a0808c1c:	2462d390 	addiu	v0,v1,-11376
a0808c20:	00821021 	addu	v0,a0,v0
a0808c24:	ac400000 	sw	zero,0(v0)
a0808c28:	8fc40004 	lw	a0,4(s8)
a0808c2c:	3c02a081 	lui	v0,0xa081
a0808c30:	2443d390 	addiu	v1,v0,-11376
a0808c34:	00041100 	sll	v0,a0,0x4
a0808c38:	00621021 	addu	v0,v1,v0
a0808c3c:	3c036100 	lui	v1,0x6100
a0808c40:	34630400 	ori	v1,v1,0x400
a0808c44:	ac430004 	sw	v1,4(v0)
a0808c48:	8fc60004 	lw	a2,4(s8)
a0808c4c:	3c02a081 	lui	v0,0xa081
a0808c50:	2443d790 	addiu	v1,v0,-10352
a0808c54:	8fc20004 	lw	v0,4(s8)
a0808c58:	00021280 	sll	v0,v0,0xa
a0808c5c:	00621021 	addu	v0,v1,v0
a0808c60:	00401821 	move	v1,v0
a0808c64:	3c021fff 	lui	v0,0x1fff
a0808c68:	3442ffff 	ori	v0,v0,0xffff
a0808c6c:	00622824 	and	a1,v1,v0
a0808c70:	3c04a081 	lui	a0,0xa081
a0808c74:	00061040 	sll	v0,a2,0x1
a0808c78:	24420001 	addiu	v0,v0,1
a0808c7c:	000218c0 	sll	v1,v0,0x3
a0808c80:	2482d390 	addiu	v0,a0,-11376
a0808c84:	00621021 	addu	v0,v1,v0
a0808c88:	ac450000 	sw	a1,0(v0)
a0808c8c:	8fc50004 	lw	a1,4(s8)
a0808c90:	8fc20004 	lw	v0,4(s8)
a0808c94:	24420001 	addiu	v0,v0,1
a0808c98:	00021900 	sll	v1,v0,0x4
a0808c9c:	3c02a081 	lui	v0,0xa081
a0808ca0:	2442d390 	addiu	v0,v0,-11376
a0808ca4:	00621021 	addu	v0,v1,v0
a0808ca8:	00401821 	move	v1,v0
a0808cac:	3c021fff 	lui	v0,0x1fff
a0808cb0:	3442ffff 	ori	v0,v0,0xffff
a0808cb4:	00622024 	and	a0,v1,v0
a0808cb8:	3c03a081 	lui	v1,0xa081
a0808cbc:	00051040 	sll	v0,a1,0x1
a0808cc0:	24420001 	addiu	v0,v0,1
a0808cc4:	2463d390 	addiu	v1,v1,-11376
a0808cc8:	000210c0 	sll	v0,v0,0x3
a0808ccc:	00621021 	addu	v0,v1,v0
a0808cd0:	ac440004 	sw	a0,4(v0)
a0808cd4:	8fc20004 	lw	v0,4(s8)
a0808cd8:	24420001 	addiu	v0,v0,1
a0808cdc:	afc20004 	sw	v0,4(s8)
a0808ce0:	8fc20004 	lw	v0,4(s8)
a0808ce4:	2842003f 	slti	v0,v0,63
a0808ce8:	1440ffc9 	bnez	v0,a0808c10 <send_desc_init+0x90>
a0808cec:	00000000 	nop
a0808cf0:	3c02a081 	lui	v0,0xa081
a0808cf4:	2442d390 	addiu	v0,v0,-11376
a0808cf8:	ac4003f0 	sw	zero,1008(v0)
a0808cfc:	3c02a081 	lui	v0,0xa081
a0808d00:	2443d390 	addiu	v1,v0,-11376
a0808d04:	3c026300 	lui	v0,0x6300
a0808d08:	34420400 	ori	v0,v0,0x400
a0808d0c:	ac6203f4 	sw	v0,1012(v1)
a0808d10:	3c02a082 	lui	v0,0xa082
a0808d14:	2442d390 	addiu	v0,v0,-11376
a0808d18:	00401821 	move	v1,v0
a0808d1c:	3c021fff 	lui	v0,0x1fff
a0808d20:	3442ffff 	ori	v0,v0,0xffff
a0808d24:	00621824 	and	v1,v1,v0
a0808d28:	3c02a081 	lui	v0,0xa081
a0808d2c:	2442d390 	addiu	v0,v0,-11376
a0808d30:	ac4303f8 	sw	v1,1016(v0)
a0808d34:	3c02a081 	lui	v0,0xa081
a0808d38:	2443d390 	addiu	v1,v0,-11376
a0808d3c:	3c021fff 	lui	v0,0x1fff
a0808d40:	3442ffff 	ori	v0,v0,0xffff
a0808d44:	00621824 	and	v1,v1,v0
a0808d48:	3c02a081 	lui	v0,0xa081
a0808d4c:	2442d390 	addiu	v0,v0,-11376
a0808d50:	ac4303fc 	sw	v1,1020(v0)
a0808d54:	afc00004 	sw	zero,4(s8)
a0808d58:	08202374 	j	a0808dd0 <send_desc_init+0x250>
a0808d5c:	00000000 	nop
a0808d60:	afc00000 	sw	zero,0(s8)
a0808d64:	0820236d 	j	a0808db4 <send_desc_init+0x234>
a0808d68:	00000000 	nop
a0808d6c:	8fc50004 	lw	a1,4(s8)
a0808d70:	8fc60000 	lw	a2,0(s8)
a0808d74:	8fc20000 	lw	v0,0(s8)
a0808d78:	3c03a081 	lui	v1,0xa081
a0808d7c:	00022080 	sll	a0,v0,0x2
a0808d80:	2462a764 	addiu	v0,v1,-22684
a0808d84:	00821021 	addu	v0,a0,v0
a0808d88:	8c470000 	lw	a3,0(v0)
a0808d8c:	3c04a081 	lui	a0,0xa081
a0808d90:	00051200 	sll	v0,a1,0x8
a0808d94:	00461021 	addu	v0,v0,a2
a0808d98:	00021880 	sll	v1,v0,0x2
a0808d9c:	2482d790 	addiu	v0,a0,-10352
a0808da0:	00621021 	addu	v0,v1,v0
a0808da4:	ac470000 	sw	a3,0(v0)
a0808da8:	8fc20000 	lw	v0,0(s8)
a0808dac:	24420001 	addiu	v0,v0,1
a0808db0:	afc20000 	sw	v0,0(s8)
a0808db4:	8fc20000 	lw	v0,0(s8)
a0808db8:	28420100 	slti	v0,v0,256
a0808dbc:	1440ffeb 	bnez	v0,a0808d6c <send_desc_init+0x1ec>
a0808dc0:	00000000 	nop
a0808dc4:	8fc20004 	lw	v0,4(s8)
a0808dc8:	24420001 	addiu	v0,v0,1
a0808dcc:	afc20004 	sw	v0,4(s8)
a0808dd0:	8fc20004 	lw	v0,4(s8)
a0808dd4:	28420040 	slti	v0,v0,64
a0808dd8:	1440ffe1 	bnez	v0,a0808d60 <send_desc_init+0x1e0>
a0808ddc:	00000000 	nop
a0808de0:	3c02a081 	lui	v0,0xa081
a0808de4:	2443d790 	addiu	v1,v0,-10352
a0808de8:	8fc20010 	lw	v0,16(s8)
a0808dec:	ac430010 	sw	v1,16(v0)
a0808df0:	3c02a081 	lui	v0,0xa081
a0808df4:	2443d790 	addiu	v1,v0,-10352
a0808df8:	3c021fff 	lui	v0,0x1fff
a0808dfc:	3442ffff 	ori	v0,v0,0xffff
a0808e00:	00621824 	and	v1,v1,v0
a0808e04:	8fc20010 	lw	v0,16(s8)
a0808e08:	ac430018 	sw	v1,24(v0)
a0808e0c:	3c02a081 	lui	v0,0xa081
a0808e10:	2443d390 	addiu	v1,v0,-11376
a0808e14:	8fc20010 	lw	v0,16(s8)
a0808e18:	ac430020 	sw	v1,32(v0)
a0808e1c:	3c02a081 	lui	v0,0xa081
a0808e20:	2443d390 	addiu	v1,v0,-11376
a0808e24:	3c021fff 	lui	v0,0x1fff
a0808e28:	3442ffff 	ori	v0,v0,0xffff
a0808e2c:	00621824 	and	v1,v1,v0
a0808e30:	8fc20010 	lw	v0,16(s8)
a0808e34:	ac430028 	sw	v1,40(v0)
a0808e38:	03c0e821 	move	sp,s8
a0808e3c:	8fbe000c 	lw	s8,12(sp)
a0808e40:	27bd0010 	addiu	sp,sp,16
a0808e44:	03e00008 	jr	ra
a0808e48:	00000000 	nop

a0808e4c <recv_desc_init>:
a0808e4c:	27bdfff0 	addiu	sp,sp,-16
a0808e50:	afbe000c 	sw	s8,12(sp)
a0808e54:	03a0f021 	move	s8,sp
a0808e58:	afc40010 	sw	a0,16(s8)
a0808e5c:	afc00004 	sw	zero,4(s8)
a0808e60:	082023b0 	j	a0808ec0 <recv_desc_init+0x74>
a0808e64:	00000000 	nop
a0808e68:	afc00000 	sw	zero,0(s8)
a0808e6c:	082023a9 	j	a0808ea4 <recv_desc_init+0x58>
a0808e70:	00000000 	nop
a0808e74:	8fc20004 	lw	v0,4(s8)
a0808e78:	8fc30000 	lw	v1,0(s8)
a0808e7c:	3c04a082 	lui	a0,0xa082
a0808e80:	00021200 	sll	v0,v0,0x8
a0808e84:	00431021 	addu	v0,v0,v1
a0808e88:	00021880 	sll	v1,v0,0x2
a0808e8c:	2482d790 	addiu	v0,a0,-10352
a0808e90:	00621021 	addu	v0,v1,v0
a0808e94:	ac400000 	sw	zero,0(v0)
a0808e98:	8fc20000 	lw	v0,0(s8)
a0808e9c:	24420001 	addiu	v0,v0,1
a0808ea0:	afc20000 	sw	v0,0(s8)
a0808ea4:	8fc20000 	lw	v0,0(s8)
a0808ea8:	28420100 	slti	v0,v0,256
a0808eac:	1440fff1 	bnez	v0,a0808e74 <recv_desc_init+0x28>
a0808eb0:	00000000 	nop
a0808eb4:	8fc20004 	lw	v0,4(s8)
a0808eb8:	24420001 	addiu	v0,v0,1
a0808ebc:	afc20004 	sw	v0,4(s8)
a0808ec0:	8fc20004 	lw	v0,4(s8)
a0808ec4:	28420040 	slti	v0,v0,64
a0808ec8:	1440ffe7 	bnez	v0,a0808e68 <recv_desc_init+0x1c>
a0808ecc:	00000000 	nop
a0808ed0:	afc00004 	sw	zero,4(s8)
a0808ed4:	082023eb 	j	a0808fac <recv_desc_init+0x160>
a0808ed8:	00000000 	nop
a0808edc:	8fc20004 	lw	v0,4(s8)
a0808ee0:	3c03a081 	lui	v1,0xa081
a0808ee4:	00022100 	sll	a0,v0,0x4
a0808ee8:	2462cf90 	addiu	v0,v1,-12400
a0808eec:	00821021 	addu	v0,a0,v0
a0808ef0:	ac400000 	sw	zero,0(v0)
a0808ef4:	8fc40004 	lw	a0,4(s8)
a0808ef8:	3c02a081 	lui	v0,0xa081
a0808efc:	2443cf90 	addiu	v1,v0,-12400
a0808f00:	00041100 	sll	v0,a0,0x4
a0808f04:	00621021 	addu	v0,v1,v0
a0808f08:	3c030100 	lui	v1,0x100
a0808f0c:	34630400 	ori	v1,v1,0x400
a0808f10:	ac430004 	sw	v1,4(v0)
a0808f14:	8fc60004 	lw	a2,4(s8)
a0808f18:	3c02a082 	lui	v0,0xa082
a0808f1c:	2443d790 	addiu	v1,v0,-10352
a0808f20:	8fc20004 	lw	v0,4(s8)
a0808f24:	00021280 	sll	v0,v0,0xa
a0808f28:	00621021 	addu	v0,v1,v0
a0808f2c:	00401821 	move	v1,v0
a0808f30:	3c021fff 	lui	v0,0x1fff
a0808f34:	3442ffff 	ori	v0,v0,0xffff
a0808f38:	00622824 	and	a1,v1,v0
a0808f3c:	3c04a081 	lui	a0,0xa081
a0808f40:	00061040 	sll	v0,a2,0x1
a0808f44:	24420001 	addiu	v0,v0,1
a0808f48:	000218c0 	sll	v1,v0,0x3
a0808f4c:	2482cf90 	addiu	v0,a0,-12400
a0808f50:	00621021 	addu	v0,v1,v0
a0808f54:	ac450000 	sw	a1,0(v0)
a0808f58:	8fc50004 	lw	a1,4(s8)
a0808f5c:	8fc20004 	lw	v0,4(s8)
a0808f60:	24420001 	addiu	v0,v0,1
a0808f64:	00021900 	sll	v1,v0,0x4
a0808f68:	3c02a081 	lui	v0,0xa081
a0808f6c:	2442cf90 	addiu	v0,v0,-12400
a0808f70:	00621021 	addu	v0,v1,v0
a0808f74:	00401821 	move	v1,v0
a0808f78:	3c021fff 	lui	v0,0x1fff
a0808f7c:	3442ffff 	ori	v0,v0,0xffff
a0808f80:	00622024 	and	a0,v1,v0
a0808f84:	3c03a081 	lui	v1,0xa081
a0808f88:	00051040 	sll	v0,a1,0x1
a0808f8c:	24420001 	addiu	v0,v0,1
a0808f90:	2463cf90 	addiu	v1,v1,-12400
a0808f94:	000210c0 	sll	v0,v0,0x3
a0808f98:	00621021 	addu	v0,v1,v0
a0808f9c:	ac440004 	sw	a0,4(v0)
a0808fa0:	8fc20004 	lw	v0,4(s8)
a0808fa4:	24420001 	addiu	v0,v0,1
a0808fa8:	afc20004 	sw	v0,4(s8)
a0808fac:	8fc20004 	lw	v0,4(s8)
a0808fb0:	2842003f 	slti	v0,v0,63
a0808fb4:	1440ffc9 	bnez	v0,a0808edc <recv_desc_init+0x90>
a0808fb8:	00000000 	nop
a0808fbc:	3c02a081 	lui	v0,0xa081
a0808fc0:	2442cf90 	addiu	v0,v0,-12400
a0808fc4:	ac4003f0 	sw	zero,1008(v0)
a0808fc8:	3c02a081 	lui	v0,0xa081
a0808fcc:	2443cf90 	addiu	v1,v0,-12400
a0808fd0:	3c020300 	lui	v0,0x300
a0808fd4:	34420400 	ori	v0,v0,0x400
a0808fd8:	ac6203f4 	sw	v0,1012(v1)
a0808fdc:	3c02a083 	lui	v0,0xa083
a0808fe0:	2442d390 	addiu	v0,v0,-11376
a0808fe4:	00401821 	move	v1,v0
a0808fe8:	3c021fff 	lui	v0,0x1fff
a0808fec:	3442ffff 	ori	v0,v0,0xffff
a0808ff0:	00621824 	and	v1,v1,v0
a0808ff4:	3c02a081 	lui	v0,0xa081
a0808ff8:	2442cf90 	addiu	v0,v0,-12400
a0808ffc:	ac4303f8 	sw	v1,1016(v0)
a0809000:	3c02a081 	lui	v0,0xa081
a0809004:	2443cf90 	addiu	v1,v0,-12400
a0809008:	3c021fff 	lui	v0,0x1fff
a080900c:	3442ffff 	ori	v0,v0,0xffff
a0809010:	00621824 	and	v1,v1,v0
a0809014:	3c02a081 	lui	v0,0xa081
a0809018:	2442cf90 	addiu	v0,v0,-12400
a080901c:	ac4303fc 	sw	v1,1020(v0)
a0809020:	3c02a082 	lui	v0,0xa082
a0809024:	2443d790 	addiu	v1,v0,-10352
a0809028:	8fc20010 	lw	v0,16(s8)
a080902c:	ac430014 	sw	v1,20(v0)
a0809030:	3c02a082 	lui	v0,0xa082
a0809034:	2443d790 	addiu	v1,v0,-10352
a0809038:	3c021fff 	lui	v0,0x1fff
a080903c:	3442ffff 	ori	v0,v0,0xffff
a0809040:	00621824 	and	v1,v1,v0
a0809044:	8fc20010 	lw	v0,16(s8)
a0809048:	ac43001c 	sw	v1,28(v0)
a080904c:	3c02a081 	lui	v0,0xa081
a0809050:	2443cf90 	addiu	v1,v0,-12400
a0809054:	8fc20010 	lw	v0,16(s8)
a0809058:	ac430024 	sw	v1,36(v0)
a080905c:	3c02a081 	lui	v0,0xa081
a0809060:	2443cf90 	addiu	v1,v0,-12400
a0809064:	3c021fff 	lui	v0,0x1fff
a0809068:	3442ffff 	ori	v0,v0,0xffff
a080906c:	00621824 	and	v1,v1,v0
a0809070:	8fc20010 	lw	v0,16(s8)
a0809074:	ac43002c 	sw	v1,44(v0)
a0809078:	03c0e821 	move	sp,s8
a080907c:	8fbe000c 	lw	s8,12(sp)
a0809080:	27bd0010 	addiu	sp,sp,16
a0809084:	03e00008 	jr	ra
a0809088:	00000000 	nop

a080908c <mii_dul_force>:
a080908c:	27bdffd8 	addiu	sp,sp,-40
a0809090:	afbf0024 	sw	ra,36(sp)
a0809094:	afbe0020 	sw	s8,32(sp)
a0809098:	afb0001c 	sw	s0,28(sp)
a080909c:	03a0f021 	move	s8,sp
a08090a0:	afc40028 	sw	a0,40(s8)
a08090a4:	8fc20028 	lw	v0,40(s8)
a08090a8:	8c42000c 	lw	v0,12(v0)
a08090ac:	00402021 	move	a0,v0
a08090b0:	24050080 	li	a1,128
a08090b4:	0c2004a1 	jal	a0801284 <reg_write_32>
a08090b8:	00000000 	nop
a08090bc:	3402c800 	li	v0,0xc800
a08090c0:	afc20010 	sw	v0,16(s8)
a08090c4:	8fc20028 	lw	v0,40(s8)
a08090c8:	8c500008 	lw	s0,8(v0)
a08090cc:	8fc20028 	lw	v0,40(s8)
a08090d0:	8c420008 	lw	v0,8(v0)
a08090d4:	00402021 	move	a0,v0
a08090d8:	0c200484 	jal	a0801210 <reg_read_32>
a08090dc:	00000000 	nop
a08090e0:	00401821 	move	v1,v0
a08090e4:	8fc20010 	lw	v0,16(s8)
a08090e8:	00621025 	or	v0,v1,v0
a08090ec:	34420100 	ori	v0,v0,0x100
a08090f0:	02002021 	move	a0,s0
a08090f4:	00402821 	move	a1,v0
a08090f8:	0c2004a1 	jal	a0801284 <reg_write_32>
a08090fc:	00000000 	nop
a0809100:	8fc20028 	lw	v0,40(s8)
a0809104:	8c420008 	lw	v0,8(v0)
a0809108:	24500004 	addiu	s0,v0,4
a080910c:	8fc20028 	lw	v0,40(s8)
a0809110:	8c420008 	lw	v0,8(v0)
a0809114:	24420004 	addiu	v0,v0,4
a0809118:	00402021 	move	a0,v0
a080911c:	0c200484 	jal	a0801210 <reg_read_32>
a0809120:	00000000 	nop
a0809124:	00401821 	move	v1,v0
a0809128:	3c028000 	lui	v0,0x8000
a080912c:	34420001 	ori	v0,v0,0x1
a0809130:	00621025 	or	v0,v1,v0
a0809134:	02002021 	move	a0,s0
a0809138:	00402821 	move	a1,v0
a080913c:	0c2004a1 	jal	a0801284 <reg_write_32>
a0809140:	00000000 	nop
a0809144:	03c0e821 	move	sp,s8
a0809148:	8fbf0024 	lw	ra,36(sp)
a080914c:	8fbe0020 	lw	s8,32(sp)
a0809150:	8fb0001c 	lw	s0,28(sp)
a0809154:	27bd0028 	addiu	sp,sp,40
a0809158:	03e00008 	jr	ra
a080915c:	00000000 	nop

a0809160 <dma_control_init>:
a0809160:	27bdffe8 	addiu	sp,sp,-24
a0809164:	afbf0014 	sw	ra,20(sp)
a0809168:	afbe0010 	sw	s8,16(sp)
a080916c:	03a0f021 	move	s8,sp
a0809170:	afc40018 	sw	a0,24(s8)
a0809174:	afc5001c 	sw	a1,28(s8)
a0809178:	8fc20018 	lw	v0,24(s8)
a080917c:	8c42000c 	lw	v0,12(v0)
a0809180:	24420018 	addiu	v0,v0,24
a0809184:	00402021 	move	a0,v0
a0809188:	8fc5001c 	lw	a1,28(s8)
a080918c:	0c2004a1 	jal	a0801284 <reg_write_32>
a0809190:	00000000 	nop
a0809194:	03c0e821 	move	sp,s8
a0809198:	8fbf0014 	lw	ra,20(sp)
a080919c:	8fbe0010 	lw	s8,16(sp)
a08091a0:	27bd0018 	addiu	sp,sp,24
a08091a4:	03e00008 	jr	ra
a08091a8:	00000000 	nop

a08091ac <phy_regs_task1>:
a08091ac:	27bdffa8 	addiu	sp,sp,-88
a08091b0:	afbf0054 	sw	ra,84(sp)
a08091b4:	afbe0050 	sw	s8,80(sp)
a08091b8:	03a0f021 	move	s8,sp
a08091bc:	24020002 	li	v0,2
a08091c0:	afc20014 	sw	v0,20(s8)
a08091c4:	3c02bfe1 	lui	v0,0xbfe1
a08091c8:	afc20024 	sw	v0,36(s8)
a08091cc:	3c02bfe1 	lui	v0,0xbfe1
a08091d0:	34421000 	ori	v0,v0,0x1000
a08091d4:	afc20028 	sw	v0,40(s8)
a08091d8:	24020400 	li	v0,1024
a08091dc:	afc2001c 	sw	v0,28(s8)
a08091e0:	24020040 	li	v0,64
a08091e4:	afc20020 	sw	v0,32(s8)
a08091e8:	27c2001c 	addiu	v0,s8,28
a08091ec:	00402021 	move	a0,v0
a08091f0:	0c2022e0 	jal	a0808b80 <send_desc_init>
a08091f4:	00000000 	nop
a08091f8:	27c2001c 	addiu	v0,s8,28
a08091fc:	00402021 	move	a0,v0
a0809200:	3c020020 	lui	v0,0x20
a0809204:	3445001c 	ori	a1,v0,0x1c
a0809208:	0c202458 	jal	a0809160 <dma_control_init>
a080920c:	00000000 	nop
a0809210:	27c2001c 	addiu	v0,s8,28
a0809214:	00402021 	move	a0,v0
a0809218:	0c2022cc 	jal	a0808b30 <clear_interrupt>
a080921c:	00000000 	nop
a0809220:	27c2001c 	addiu	v0,s8,28
a0809224:	00402021 	move	a0,v0
a0809228:	0c202423 	jal	a080908c <mii_dul_force>
a080922c:	00000000 	nop
a0809230:	8fc20014 	lw	v0,20(s8)
a0809234:	24040001 	li	a0,1
a0809238:	00402821 	move	a1,v0
a080923c:	0c201317 	jal	a0804c5c <sys_move_cursor>
a0809240:	00000000 	nop
a0809244:	3c02a081 	lui	v0,0xa081
a0809248:	2444a2e0 	addiu	a0,v0,-23840
a080924c:	0c20197b 	jal	a08065ec <printf>
a0809250:	00000000 	nop
a0809254:	afc00010 	sw	zero,16(s8)
a0809258:	24020004 	li	v0,4
a080925c:	afc20018 	sw	v0,24(s8)
a0809260:	082024b0 	j	a08092c0 <phy_regs_task1+0x114>
a0809264:	00000000 	nop
a0809268:	8fc2003c 	lw	v0,60(s8)
a080926c:	8fc30044 	lw	v1,68(s8)
a0809270:	00402021 	move	a0,v0
a0809274:	00602821 	move	a1,v1
a0809278:	0c201500 	jal	a0805400 <sys_net_send>
a080927c:	00000000 	nop
a0809280:	8fc20010 	lw	v0,16(s8)
a0809284:	24420040 	addiu	v0,v0,64
a0809288:	afc20010 	sw	v0,16(s8)
a080928c:	8fc20014 	lw	v0,20(s8)
a0809290:	24040001 	li	a0,1
a0809294:	00402821 	move	a1,v0
a0809298:	0c201317 	jal	a0804c5c <sys_move_cursor>
a080929c:	00000000 	nop
a08092a0:	3c02a081 	lui	v0,0xa081
a08092a4:	2444a314 	addiu	a0,v0,-23788
a08092a8:	8fc50010 	lw	a1,16(s8)
a08092ac:	0c20197b 	jal	a08065ec <printf>
a08092b0:	00000000 	nop
a08092b4:	8fc20018 	lw	v0,24(s8)
a08092b8:	2442ffff 	addiu	v0,v0,-1
a08092bc:	afc20018 	sw	v0,24(s8)
a08092c0:	8fc20018 	lw	v0,24(s8)
a08092c4:	1440ffe8 	bnez	v0,a0809268 <phy_regs_task1+0xbc>
a08092c8:	00000000 	nop
a08092cc:	0c2013b6 	jal	a0804ed8 <sys_exit>
a08092d0:	00000000 	nop
a08092d4:	03c0e821 	move	sp,s8
a08092d8:	8fbf0054 	lw	ra,84(sp)
a08092dc:	8fbe0050 	lw	s8,80(sp)
a08092e0:	27bd0058 	addiu	sp,sp,88
a08092e4:	03e00008 	jr	ra
a08092e8:	00000000 	nop

a08092ec <phy_regs_task2>:
a08092ec:	27bdffa8 	addiu	sp,sp,-88
a08092f0:	afbf0054 	sw	ra,84(sp)
a08092f4:	afbe0050 	sw	s8,80(sp)
a08092f8:	03a0f021 	move	s8,sp
a08092fc:	24020001 	li	v0,1
a0809300:	afc20010 	sw	v0,16(s8)
a0809304:	3c02bfe1 	lui	v0,0xbfe1
a0809308:	afc20024 	sw	v0,36(s8)
a080930c:	3c02bfe1 	lui	v0,0xbfe1
a0809310:	34421000 	ori	v0,v0,0x1000
a0809314:	afc20028 	sw	v0,40(s8)
a0809318:	24020400 	li	v0,1024
a080931c:	afc2001c 	sw	v0,28(s8)
a0809320:	24020040 	li	v0,64
a0809324:	afc20020 	sw	v0,32(s8)
a0809328:	27c2001c 	addiu	v0,s8,28
a080932c:	00402021 	move	a0,v0
a0809330:	0c202393 	jal	a0808e4c <recv_desc_init>
a0809334:	00000000 	nop
a0809338:	27c2001c 	addiu	v0,s8,28
a080933c:	00402021 	move	a0,v0
a0809340:	3c020020 	lui	v0,0x20
a0809344:	3445001c 	ori	a1,v0,0x1c
a0809348:	0c202458 	jal	a0809160 <dma_control_init>
a080934c:	00000000 	nop
a0809350:	27c2001c 	addiu	v0,s8,28
a0809354:	00402021 	move	a0,v0
a0809358:	0c2022cc 	jal	a0808b30 <clear_interrupt>
a080935c:	00000000 	nop
a0809360:	27c2001c 	addiu	v0,s8,28
a0809364:	00402021 	move	a0,v0
a0809368:	0c202423 	jal	a080908c <mii_dul_force>
a080936c:	00000000 	nop
a0809370:	3c02a081 	lui	v0,0xa081
a0809374:	2444abd0 	addiu	a0,v0,-21552
a0809378:	0c201190 	jal	a0804640 <queue_init>
a080937c:	00000000 	nop
a0809380:	8fc20010 	lw	v0,16(s8)
a0809384:	24040001 	li	a0,1
a0809388:	00402821 	move	a1,v0
a080938c:	0c201317 	jal	a0804c5c <sys_move_cursor>
a0809390:	00000000 	nop
a0809394:	3c02a081 	lui	v0,0xa081
a0809398:	2444a348 	addiu	a0,v0,-23736
a080939c:	0c20197b 	jal	a08065ec <printf>
a08093a0:	00000000 	nop
a08093a4:	8fc20040 	lw	v0,64(s8)
a08093a8:	8fc30048 	lw	v1,72(s8)
a08093ac:	8fc60030 	lw	a2,48(s8)
a08093b0:	00402021 	move	a0,v0
a08093b4:	00602821 	move	a1,v1
a08093b8:	0c2014eb 	jal	a08053ac <sys_net_recv>
a08093bc:	00000000 	nop
a08093c0:	afc20014 	sw	v0,20(s8)
a08093c4:	8fc20014 	lw	v0,20(s8)
a08093c8:	1440000c 	bnez	v0,a08093fc <phy_regs_task2+0x110>
a08093cc:	00000000 	nop
a08093d0:	8fc20010 	lw	v0,16(s8)
a08093d4:	24040001 	li	a0,1
a08093d8:	00402821 	move	a1,v0
a08093dc:	0c201317 	jal	a0804c5c <sys_move_cursor>
a08093e0:	00000000 	nop
a08093e4:	3c02a081 	lui	v0,0xa081
a08093e8:	2444a374 	addiu	a0,v0,-23692
a08093ec:	0c20197b 	jal	a08065ec <printf>
a08093f0:	00000000 	nop
a08093f4:	08202508 	j	a0809420 <phy_regs_task2+0x134>
a08093f8:	00000000 	nop
a08093fc:	8fc20010 	lw	v0,16(s8)
a0809400:	24040001 	li	a0,1
a0809404:	00402821 	move	a1,v0
a0809408:	0c201317 	jal	a0804c5c <sys_move_cursor>
a080940c:	00000000 	nop
a0809410:	3c02a081 	lui	v0,0xa081
a0809414:	2444a3b0 	addiu	a0,v0,-23632
a0809418:	0c20197b 	jal	a08065ec <printf>
a080941c:	00000000 	nop
a0809420:	0c2013b6 	jal	a0804ed8 <sys_exit>
a0809424:	00000000 	nop
a0809428:	03c0e821 	move	sp,s8
a080942c:	8fbf0054 	lw	ra,84(sp)
a0809430:	8fbe0050 	lw	s8,80(sp)
a0809434:	27bd0058 	addiu	sp,sp,88
a0809438:	03e00008 	jr	ra
a080943c:	00000000 	nop

a0809440 <phy_regs_task3>:
a0809440:	27bdffe0 	addiu	sp,sp,-32
a0809444:	afbf001c 	sw	ra,28(sp)
a0809448:	afbe0018 	sw	s8,24(sp)
a080944c:	03a0f021 	move	s8,sp
a0809450:	24020001 	li	v0,1
a0809454:	afc20010 	sw	v0,16(s8)
a0809458:	8fc20010 	lw	v0,16(s8)
a080945c:	24040001 	li	a0,1
a0809460:	00402821 	move	a1,v0
a0809464:	0c201317 	jal	a0804c5c <sys_move_cursor>
a0809468:	00000000 	nop
a080946c:	3c02a081 	lui	v0,0xa081
a0809470:	2444a3ec 	addiu	a0,v0,-23572
a0809474:	0c20197b 	jal	a08065ec <printf>
a0809478:	00000000 	nop
a080947c:	0c2014db 	jal	a080536c <sys_init_mac>
a0809480:	00000000 	nop
a0809484:	8fc20010 	lw	v0,16(s8)
a0809488:	24040001 	li	a0,1
a080948c:	00402821 	move	a1,v0
a0809490:	0c201317 	jal	a0804c5c <sys_move_cursor>
a0809494:	00000000 	nop
a0809498:	3c02a081 	lui	v0,0xa081
a080949c:	2444a418 	addiu	a0,v0,-23528
a08094a0:	0c20197b 	jal	a08065ec <printf>
a08094a4:	00000000 	nop
a08094a8:	0c2013b6 	jal	a0804ed8 <sys_exit>
a08094ac:	00000000 	nop
a08094b0:	03c0e821 	move	sp,s8
a08094b4:	8fbf001c 	lw	ra,28(sp)
a08094b8:	8fbe0018 	lw	s8,24(sp)
a08094bc:	27bd0020 	addiu	sp,sp,32
a08094c0:	03e00008 	jr	ra
a08094c4:	00000000 	nop
	...
a08094d0:	255b6325 	addiu	k1,t2,25381
a08094d4:	64253b64 	daddiu	a1,at,15204
a08094d8:	00000048 	0x48
a08094dc:	325b6325 	andi	k1,s2,0x6325
a08094e0:	0000004a 	0x4a
a08094e4:	3f5b6325 	0x3f5b6325
a08094e8:	006c3532 	tlt	v1,t4,0xd4
a08094ec:	00000000 	nop
a08094f0:	445b3e3e 	0x445b3e3e
a08094f4:	5220414d 	beqzl	s1,a0819a2c <_gp+0x6eac>
a08094f8:	73696765 	0x73696765
a08094fc:	5d726574 	0x5d726574
a0809500:	0000000a 	0xa
a0809504:	305b2020 	andi	k1,v0,0x2020
a0809508:	7542205d 	jalx	a5088174 <__bbs_end+0x4854cc0>
a080950c:	6f4d2073 	ldr	t5,8307(k0)
a0809510:	3a206564 	xori	zero,s1,0x6564
a0809514:	25783020 	addiu	t8,t3,12320
a0809518:	00202c78 	0x202c78
a080951c:	335b2020 	andi	k1,k0,0x2020
a0809520:	205d342d 	addi	sp,v0,13357
a0809524:	522f5854 	beql	s1,t7,a081f678 <Rx_buffer+0x1ee8>
a0809528:	203a2058 	addi	k0,at,8280
a080952c:	78257830 	0x78257830
a0809530:	2578302f 	addiu	t8,t3,12335
a0809534:	00000a78 	dsll	at,zero,0x9
a0809538:	355b2020 	ori	k1,t2,0x2020
a080953c:	7453205d 	jalx	a14c8174 <__bbs_end+0xc94cc0>
a0809540:	73757461 	0x73757461
a0809544:	30203a20 	andi	zero,at,0x3a20
a0809548:	2c782578 	sltiu	t8,v1,9592
a080954c:	00000020 	add	zero,zero,zero
a0809550:	365b2020 	ori	k1,s2,0x2020
a0809554:	6f43205d 	ldr	v1,8285(k0)
a0809558:	6f72746e 	ldr	s2,29806(k1)
a080955c:	203a206c 	addi	k0,at,8300
a0809560:	78257830 	0x78257830
a0809564:	0000000a 	0xa
a0809568:	375b2020 	ori	k1,k0,0x2020
a080956c:	6e49205d 	ldr	t1,8285(s2)
a0809570:	72726574 	0x72726574
a0809574:	20747075 	addi	s4,v1,28789
a0809578:	7830203a 	0x7830203a
a080957c:	202c7825 	addi	t4,at,30757
a0809580:	00000000 	nop
a0809584:	385b2020 	xori	k1,v0,0x2020
a0809588:	694d205d 	ldl	t5,8285(t2)
a080958c:	64657373 	daddiu	a1,v1,29555
a0809590:	30203a20 	andi	zero,at,0x3a20
a0809594:	0a782578 	j	a9e095e0 <__bbs_end+0x95d612c>
a0809598:	00000000 	nop
a080959c:	315b2020 	andi	k1,t2,0x2020
a08095a0:	39312d38 	xori	s1,t1,0x2d38
a08095a4:	7543205d 	jalx	a50c8174 <__bbs_end+0x4894cc0>
a08095a8:	6e657272 	ldr	a1,29298(s3)
a08095ac:	6f482074 	ldr	t0,8308(k0)
a08095b0:	54207473 	bnezl	at,a0826780 <Rx_buffer+0x8ff0>
a08095b4:	58522f58 	0x58522f58
a08095b8:	73654420 	0x73654420
a08095bc:	70697263 	0x70697263
a08095c0:	6e6f6974 	ldr	t7,26996(s3)
a08095c4:	30203a20 	andi	zero,at,0x3a20
a08095c8:	2f782578 	sltiu	t8,k1,9592
a08095cc:	78257830 	0x78257830
a08095d0:	0000000a 	0xa
a08095d4:	325b2020 	andi	k1,s2,0x2020
a08095d8:	31322d30 	andi	s2,t1,0x2d30
a08095dc:	7543205d 	jalx	a50c8174 <__bbs_end+0x4894cc0>
a08095e0:	6e657272 	ldr	a1,29298(s3)
a08095e4:	6f482074 	ldr	t0,8308(k0)
a08095e8:	54207473 	bnezl	at,a08267b8 <Rx_buffer+0x9028>
a08095ec:	58522f58 	0x58522f58
a08095f0:	66754220 	daddiu	s5,s3,16928
a08095f4:	20726566 	addi	s2,v1,25958
a08095f8:	72646441 	0x72646441
a08095fc:	20737365 	addi	s3,v1,29541
a0809600:	7830203a 	0x7830203a
a0809604:	302f7825 	andi	t7,at,0x7825
a0809608:	0a782578 	j	a9e095e0 <__bbs_end+0x95d612c>
a080960c:	00000000 	nop
a0809610:	4d5b3e3e 	0x4d5b3e3e
a0809614:	52204341 	beqzl	s1,a081a31c <_gp+0x779c>
a0809618:	73696765 	0x73696765
a080961c:	5d726574 	0x5d726574
a0809620:	0000000a 	0xa
a0809624:	305b2020 	andi	k1,v0,0x2020
a0809628:	6f43205d 	ldr	v1,8285(k0)
a080962c:	6769666e 	daddiu	t1,k1,26222
a0809630:	20657275 	addi	a1,v1,29301
a0809634:	7830203a 	0x7830203a
a0809638:	202c7825 	addi	t4,at,30757
a080963c:	00000000 	nop
a0809640:	315b2020 	andi	k1,t2,0x2020
a0809644:	7246205d 	0x7246205d
a0809648:	20656d61 	addi	a1,v1,28001
a080964c:	746c6946 	jalx	a1b1a518 <__bbs_end+0x12e7064>
a0809650:	3a207265 	xori	zero,s1,0x7265
a0809654:	25783020 	addiu	t8,t3,12320
a0809658:	00000a78 	dsll	at,zero,0x9
a080965c:	325b2020 	andi	k1,s2,0x2020
a0809660:	205d332d 	addi	sp,v0,13101
a0809664:	68736148 	ldl	s3,24904(v1)
a0809668:	62615420 	daddi	at,s3,21536
a080966c:	4820656c 	0x4820656c
a0809670:	2f686769 	sltiu	t0,k1,26473
a0809674:	20776f4c 	addi	s7,v1,28492
a0809678:	7830203a 	0x7830203a
a080967c:	302d7825 	andi	t5,at,0x7825
a0809680:	0a782578 	j	a9e095e0 <__bbs_end+0x95d612c>
a0809684:	00000000 	nop
a0809688:	365b2020 	ori	k1,s2,0x2020
a080968c:	6c46205d 	ldr	a2,8285(v0)
a0809690:	4320776f 	c0	0x120776f
a0809694:	72746e6f 	0x72746e6f
a0809698:	3a206c6f 	xori	zero,s1,0x6c6f
a080969c:	25783020 	addiu	t8,t3,12320
a08096a0:	00202c78 	0x202c78
a08096a4:	385b2020 	xori	k1,v0,0x2020
a08096a8:	6556205d 	daddiu	s6,t2,8285
a08096ac:	6f697372 	ldr	t1,29554(k1)
a08096b0:	203a206e 	addi	k0,at,8302
a08096b4:	78257830 	0x78257830
a08096b8:	0000000a 	0xa
a08096bc:	315b2020 	andi	k1,t2,0x2020
a08096c0:	35312d34 	ori	s1,t1,0x2d34
a08096c4:	6e49205d 	ldr	t1,8285(s2)
a08096c8:	72726574 	0x72726574
a08096cc:	20747075 	addi	s4,v1,28789
a08096d0:	74617453 	jalx	a185d14c <__bbs_end+0x1029c98>
a08096d4:	4d2f7375 	0x4d2f7375
a08096d8:	206b7361 	addi	t3,v1,29537
a08096dc:	7830203a 	0x7830203a
a08096e0:	302f7825 	andi	t7,at,0x7825
a08096e4:	0a782578 	j	a9e095e0 <__bbs_end+0x95d612c>
a08096e8:	00000000 	nop
a08096ec:	315b2020 	andi	k1,t2,0x2020
a08096f0:	37312d36 	ori	s1,t9,0x2d36
a08096f4:	614d205d 	daddi	t5,t2,8285
a08096f8:	64412063 	daddiu	at,v0,8291
a08096fc:	3a207264 	xori	zero,s1,0x7264
a0809700:	3a582520 	xori	t8,s2,0x2520
a0809704:	253a5825 	addiu	k0,t1,22565
a0809708:	58253a58 	0x58253a58
a080970c:	3a58253a 	xori	t8,s2,0x253a
a0809710:	000a5825 	or	t3,zero,t2
a0809714:	335b2020 	andi	k1,k0,0x2020
a0809718:	205d342d 	addi	sp,v0,13357
a080971c:	542f5852 	bnel	at,t7,a081f868 <Rx_buffer+0x20d8>
a0809720:	203a2058 	addi	k0,at,8280
a0809724:	78257830 	0x78257830
a0809728:	2578302f 	addiu	t8,t3,12335
a080972c:	00000a78 	dsll	at,zero,0x9
a0809730:	646e6573 	daddiu	t6,v1,25971
a0809734:	66756220 	daddiu	s5,s3,25120
a0809738:	20726566 	addi	s2,v1,25958
a080973c:	2d63616d 	sltiu	v1,t3,24941
a0809740:	6461733e 	daddiu	at,v1,29502
a0809744:	303d7264 	andi	sp,at,0x7264
a0809748:	20782578 	addi	t8,v1,9592
a080974c:	00000000 	nop
a0809750:	2d63616d 	sltiu	v1,t3,24941
a0809754:	6461733e 	daddiu	at,v1,29502
a0809758:	705f7264 	0x705f7264
a080975c:	303d7968 	andi	sp,at,0x7968
a0809760:	20782578 	addi	t8,v1,9592
a0809764:	00000000 	nop
a0809768:	646e6573 	daddiu	t6,v1,25971
a080976c:	73696420 	0x73696420
a0809770:	20627263 	addi	v0,v1,29283
a0809774:	2d63616d 	sltiu	v1,t3,24941
a0809778:	5f64743e 	0x5f64743e
a080977c:	3d796870 	0x3d796870
a0809780:	78257830 	0x78257830
a0809784:	0000000a 	0xa
a0809788:	69636572 	ldl	v1,25970(t3)
a080978c:	20657665 	addi	a1,v1,30309
a0809790:	66667562 	daddiu	a2,s3,30050
a0809794:	61207265 	daddi	zero,t1,29285
a0809798:	6d206464 	ldr	zero,25700(t1)
a080979c:	3e2d6361 	0x3e2d6361
a08097a0:	64646164 	daddiu	a0,v1,24932
a08097a4:	78303d72 	0x78303d72
a08097a8:	00207825 	move	t7,at
a08097ac:	2d63616d 	sltiu	v1,t3,24941
a08097b0:	6461643e 	daddiu	at,v1,25662
a08097b4:	705f7264 	0x705f7264
a08097b8:	303d7968 	andi	sp,at,0x7968
a08097bc:	20782578 	addi	t8,v1,9592
a08097c0:	00000000 	nop
a08097c4:	69636572 	ldl	v1,25970(t3)
a08097c8:	20657665 	addi	a1,v1,30309
a08097cc:	63736964 	daddi	s3,k1,26980
a08097d0:	61206272 	daddi	zero,t1,25202
a08097d4:	6d206464 	ldr	zero,25700(t1)
a08097d8:	3e2d6361 	0x3e2d6361
a08097dc:	705f6472 	0x705f6472
a08097e0:	303d7968 	andi	sp,at,0x7968
a08097e4:	0a782578 	j	a9e095e0 <__bbs_end+0x95d612c>
a08097e8:	00000000 	nop

a08097ec <C.43.1580>:
a08097ec:	b57b5500 0000f77d 74696157 20676e69     .U{.}...Waiting 
a08097fc:	65636572 20657669 6b636170 2e656761     receive package.
a080980c:	00002e2e 72206425 20766365 66667562     ....%d recv buff
a080981c:	6472202c 20307365 7830203d 0a3a7825     , rdes0 = 0x%x:.
a080982c:	00000000 00207825 0000000a 61746f54     ....%x .....Tota
a080983c:	20796c6c 76636572 20642520 696c6176     lly recv %d vali
a080984c:	61702064 67616b63 20217365 0a202020     d packages!    .
a080985c:	00000000 495b203e 5d54494e 73795320     ....> [INIT] Sys
a080986c:	206d6574 6c6c6163 696e6920 6c616974     tem call initial
a080987c:	64657a69 63757320 73736563 6c6c7566     ized successfull
a080988c:	000a2e79 495b203e 5d54494e 72695620     y...> [INIT] Vir
a080989c:	6c617574 6d656d20 2079726f 74696e69     tual memory init
a08098ac:	696c6169 6974617a 73206e6f 65636375     ialization succe
a08098bc:	64656465 00000a2e 495b203e 5d54494e     eded....> [INIT]
a08098cc:	65755120 69206575 6974696e 7a696c61      Queue initializ
a08098dc:	73206465 65636375 75667373 2e796c6c     ed successfully.
a08098ec:	0000000a 495b203e 5d54494e 42435020     ....> [INIT] PCB
a08098fc:	696e6920 6c616974 74617a69 206e6f69      initialization 
a080990c:	63637573 65646565 000a2e64 00000000     succeeded.......
a080991c:	00000000 6e6b6e55 4920776f 7265746e     ....Unknow Inter
a080992c:	74707572 5453203a 53555441 25203d20     rupt: STATUS = %
a080993c:	41432078 20455355 7825203d 64697020     x CAUSE = %x pid
a080994c:	25203d20 70202c64 203d2063 00007825      = %d, pc = %x..
a080995c:	6e6b6e55 4520776f 70656378 6e6f6974     Unknow Exception
a080996c:	5453203a 53555441 30203d20 20782578     : STATUS = 0x%x 
a080997c:	53554143 203d2045 78257830 64697020     CAUSE = 0x%x pid
a080998c:	25203d20 42202c64 64416461 3d207264      = %d, BadAddr =
a080999c:	25783020 45202c78 3d204350 25783020      0x%x, EPC = 0x%
a08099ac:	00000a78 5b455450 3a5d6425 4e505620     x...PTE[%d]: VPN
a08099bc:	2c78253d 4e465020 2c78253d 44495020     =%x, PFN=%x, PID
a08099cc:	2c78253d 6c617620 3d206469 000a7825     =%x, valid =%x..
a08099dc:	000a6425 6f727245 54203a72 65726568     %d..Error: There
a08099ec:	20736920 50206f6e 74204554 6c61206f      is no PTE to al
a08099fc:	61636f6c 000a6574 6f727245 54203a72     locate..Error: T
a0809a0c:	65726568 20736920 50206f6e 6f742046     here is no PF to
a0809a1c:	6c6c6120 7461636f 00000a65 00000000      allocate.......
a0809a2c:	00000000 50204f4e 45434f52 54205353     ....NO PROCESS T
a0809a3c:	5552204f 0000004e 4f52505b 53534543     O RUN...[PROCESS
a0809a4c:	42415420 0a5d454c 00000000 5d64255b      TABLE].....[%d]
a0809a5c:	44495020 25203a20 54532064 53555441      PID : %d STATUS
a0809a6c:	52203a20 494e4e55 000a474e 5d64255b      : RUNNING..[%d]
a0809a7c:	44495020 25203a20 54532064 53555441      PID : %d STATUS
a0809a8c:	52203a20 59444145 0000000a 65766148      : READY....Have
a0809a9c:	206f6e20 69617661 6c62616c 63702065      no available pc
a0809aac:	00000062 4e4b4e55 5320574f 41435359     b...UNKNOW SYSCA
a0809abc:	203a4c4c 000a6425 00000000 00000000     LL: %d..........
a0809acc:	00000000 646e6573 00000000 76636572     ....send....recv
a0809adc:	00000000 74696e69 0063616d 6c656873     ....initmac.shel
a0809aec:	0000006c 2d2d2d2d 2d2d2d2d 2d2d2d2d     l...------------
a0809afc:	2d2d2d2d 202d2d2d 4d4d4f43 20444e41     ------- COMMAND 
a0809b0c:	2d2d2d2d 2d2d2d2d 2d2d2d2d 2d2d2d2d     ----------------
a0809b1c:	002d2d2d 6f72203e 5540746f 5f534143     ---.> root@UCAS_
a0809b2c:	003a534f 00006325 00007370 61656c63     OS:.%c..ps..clea
a0809b3c:	00000072 63657865 6f727020 73736563     r...exec process
a0809b4c:	5d63255b 0000002e 63657865 6f727020     [%c]....exec pro
a0809b5c:	73736563 2563255b 002e5d63 6c6c696b     cess[%c%c]..kill
a0809b6c:	6f727020 73736563 64697020 25203d20      process pid = %
a0809b7c:	00002e63 6c6c696b 6f727020 73736563     c...kill process
a0809b8c:	64697020 25203d20 2e632563 00000000      pid = %c%c.....
a0809b9c:	6f727245 55203a72 6f6e6b6e 63206e77     Error: Unknown c
a0809bac:	616d6d6f 0000646e 00000000 00000000     ommand..........
a0809bbc:	00000000 545b203e 5d4b5341 69685420     ....> [TASK] Thi
a0809bcc:	61742073 69206b73 6f742073 73657420     s task is to tes
a0809bdc:	63732074 75646568 2e72656c 64252820     t scheduler. (%d
a0809bec:	00000029 00007325 00000000 00000000     )...%s..........
a0809bfc:	00000000 545b203e 5d4b5341 69685420     ....> [TASK] Thi
a0809c0c:	61742073 69206b73 6f742073 73657420     s task is to tes
a0809c1c:	63732074 75646568 2e72656c 64252820     t scheduler. (%d
a0809c2c:	00000029 00007325 00000000 00000000     )...%s..........
a0809c3c:	00000000 00007325 545b203e 5d4b5341     ....%s..> [TASK]
a0809c4c:	70704120 6e69796c 6f662067 20612072      Applying for a 
a0809c5c:	6b636f6c 00000a2e 545b203e 5d4b5341     lock....> [TASK]
a0809c6c:	73614820 71636120 65726975 6f6c2064      Has acquired lo
a0809c7c:	61206b63 7220646e 696e6e75 282e676e     ck and running.(
a0809c8c:	0a296425 00000000 545b203e 5d4b5341     %d).....> [TASK]
a0809c9c:	73614820 71636120 65726975 6f6c2064      Has acquired lo
a0809cac:	61206b63 6520646e 65746978 000a2e64     ck and exited...
a0809cbc:	00000000 545b203e 5d4b5341 69685420     ....> [TASK] Thi
a0809ccc:	61742073 69206b73 6f742073 73657420     s task is to tes
a0809cdc:	6c732074 28706565 28202e29 0a296425     t sleep(). (%d).
a0809cec:	00000000 545b203e 5d4b5341 69685420     ....> [TASK] Thi
a0809cfc:	61742073 69206b73 6c732073 69706565     s task is sleepi
a0809d0c:	202c676e 65656c73 69742070 6920656d     ng, sleep time i
a0809d1c:	64252073 00000a2e 00007325 00000000     s %d....%s......
a0809d2c:	00000000 545b203e 5d4b5341 69685420     ....> [TASK] Thi
a0809d3c:	73692073 74206120 61657268 6f742064     s is a thread to
a0809d4c:	6d697420 21676e69 75252820 2075252f      timing! (%u/%u 
a0809d5c:	6f636573 2973646e 00000a2e 00000000     seconds)........
a0809d6c:	00000000 545b203e 5d4b5341 61204920     ....> [TASK] I a
a0809d7c:	6174206d 77206b73 20687469 20646970     m task with pid 
a0809d8c:	202c6425 61682049 61206576 69757163     %d, I have acqui
a0809d9c:	20646572 206f7774 6574756d 6f6c2078     red two mutex lo
a0809dac:	202e6b63 29642528 00000000 545b203e     ck. (%d)....> [T
a0809dbc:	5d4b5341 77204920 20746e61 61206f74     ASK] I want to a
a0809dcc:	69757163 61206572 74756d20 6f6c2065     cquire a mute lo
a0809ddc:	66206b63 206d6f72 6b736174 64697028     ck from task(pid
a0809dec:	2e29323d 00000000 545b203e 5d4b5341     =2).....> [TASK]
a0809dfc:	68204920 20657661 75716361 64657269      I have acquired
a0809e0c:	6d206120 78657475 636f6c20 7266206b      a mutex lock fr
a0809e1c:	74206d6f 286b7361 3d646970 002e2932     om task(pid=2)..
a0809e2c:	545b203e 5d4b5341 77204920 20746e61     > [TASK] I want 
a0809e3c:	77206f74 20746961 6b736174 69702820     to wait task (pi
a0809e4c:	29323d64 206f7420 74697865 0000002e     d=2) to exit....
a0809e5c:	545b203e 5d4b5341 73615420 7028206b     > [TASK] Task (p
a0809e6c:	323d6469 61682029 78652073 64657469     id=2) has exited
a0809e7c:	2020202e 20202020 20202020 20202020     .               
a0809e8c:	00000020 545b203e 5d4b5341 746f5420      ...> [TASK] Tot
a0809e9c:	70206c61 75646f72 20646563 70206425     al produced %d p
a0809eac:	75646f72 2e737463 00000000 545b203e     roducts.....> [T
a0809ebc:	5d4b5341 746f5420 63206c61 75736e6f     ASK] Total consu
a0809ecc:	2064656d 70206425 75646f72 2e737463     med %d products.
a0809edc:	00000000 545b203e 5d4b5341 72756320     ....> [TASK] cur
a0809eec:	746e6572 6f6c6720 206c6162 756c6176     rent global valu
a0809efc:	64252065 2528202e 00002964 00000000     e %d. (%d)......
a0809f0c:	00000000 545b203e 5d4b5341 61655220     ....> [TASK] Rea
a0809f1c:	74207964 6e65206f 20726574 20656874     dy to enter the 
a0809f2c:	72726162 2e726569 29642528 00000000     barrier.(%d)....
a0809f3c:	545b203e 5d4b5341 69784520 20646574     > [TASK] Exited 
a0809f4c:	72726162 20726569 29642528 2020202e     barrier (%d).   
a0809f5c:	20202020 20202020 00000000 00000000             ........
a0809f6c:	00000000 516e7553 006e6175 4275694c     ....SunQuan.LiuB
a0809f7c:	00006965 436f6143 00006f61 516e7553     ei..CaoCao..SunQ
a0809f8c:	2d6e6175 6c627550 2d687369 00444950     uan-Publish-PID.
a0809f9c:	4275694c 502d6965 696c6275 502d6873     LiuBei-Publish-P
a0809fac:	00004449 6e75535b 6e617551 6425285d     ID..[SunQuan](%d
a0809fbc:	57203a29 65726568 65726120 756f7920     ): Where are you
a0809fcc:	75694c20 3f696562 20202020 20202020      Liubei?        
a0809fdc:	20202020 20202020 00000000 6e75535b             ....[Sun
a0809fec:	6e617551 6425285d 49203a29 77206d27     Quan](%d): I'm w
a0809ffc:	69746961 6620676e 4c20726f 65627569     aiting for Liube
a080a00c:	25282069 20202964 20202020 20202020     i (%d)          
a080a01c:	00000000 6e75535b 6e617551 6425285d     ....[SunQuan](%d
a080a02c:	49203a29 63206d27 6e696d6f 6f742067     ): I'm coming to
a080a03c:	76617320 6f792065 4c202c75 65427569      save you, LiuBe
a080a04c:	00002169 75694c5b 5d696542 29642528     i!..[LiuBei](%d)
a080a05c:	6857203a 20657265 20657261 20756f79     : Where are you 
a080a06c:	516e7553 3f6e6175 20202020 20202020     SunQuan?        
a080a07c:	00002020 75694c5b 5d696542 29642528       ..[LiuBei](%d)
a080a08c:	2749203a 6177206d 6e697469 6f662067     : I'm waiting fo
a080a09c:	75532072 6175516e 2528206e 20202964     r SunQuan (%d)  
a080a0ac:	00002020 75694c5b 5d696542 29642528       ..[LiuBei](%d)
a080a0bc:	2749203a 6f63206d 676e696d 206f7420     : I'm coming to 
a080a0cc:	65766173 756f7920 7553202c 6175516e     save you, SunQua
a080a0dc:	0000216e 6f61435b 5d6f6143 29642528     n!..[CaoCao](%d)
a080a0ec:	2049203a 77206d61 696b726f 2e2e676e     : I am working..
a080a0fc:	756d202e 68616861 00002061 6f61435b     . muahaha ..[Cao
a080a10c:	5d6f6143 29642528 2049203a 65766168     Cao](%d): I have
a080a11c:	20796d20 69636564 6e6f6973 00002021      my decision! ..
a080a12c:	6f61435b 5d6f6143 29642528 2049203a     [CaoCao](%d): I 
a080a13c:	6c6c6977 6c696b20 7553206c 6175516e     will kill SunQua
a080a14c:	2528206e 20212964 00000020 6f61435b     n (%d)!  ...[Cao
a080a15c:	5d6f6143 20756962 20756962 20756962     Cao]biu biu biu 
a080a16c:	7e7e7e7e 41207e7e 41414141 20414141     ~~~~~~ AAAAAAAA 
a080a17c:	516e7553 206e6175 64207369 20646165     SunQuan is dead 
a080a18c:	2e514151 00000000 6f61435b 5d6f6143     QAQ.....[CaoCao]
a080a19c:	29642528 6f4f203a 20217370 516e7553     (%d): Oops! SunQ
a080a1ac:	286e6175 20296425 6576696c 20202173     uan(%d) lives!  
a080a1bc:	20202020 20202020 20202020 00202020                    .
a080a1cc:	6f61435b 5d6f6143 29642528 2049203a     [CaoCao](%d): I 
a080a1dc:	6c6c6977 6c696b20 694c206c 69654275     will kill LiuBei
a080a1ec:	29642528 00002021 6f61435b 5d6f6143     (%d)! ..[CaoCao]
a080a1fc:	20756962 20756962 20756962 7e7e7e7e     biu biu biu ~~~~
a080a20c:	41207e7e 41414141 20414141 6275694c     ~~ AAAAAAAA Liub
a080a21c:	69206965 65642073 51206461 002e5141     ei is dead QAQ..
a080a22c:	6f61435b 5d6f6143 29642528 6f4f203a     [CaoCao](%d): Oo
a080a23c:	20217370 4275694c 25286965 69202964     ps! LiuBei(%d) i
a080a24c:	6c612073 20657669 69616761 0020216e     s alive again! .
a080a25c:	00000000 20202020 20202020 20202020     ....            
a080a26c:	20202020 20202020 00202020 65746e45                .Ente
a080a27c:	41202072 3a524444 00000000 00006325     r  ADDR:....%c..
a080a28c:	74697257 30203a65 2c782578 20642520     Write: 0x%x, %d 
a080a29c:	20202020 20202020 00202020 64616552                .Read
a080a2ac:	63757320 64656563 6425203a 20202020      succeed: %d    
a080a2bc:	20202020 00202020 64616552 72726520            .Read err
a080a2cc:	203a726f 20206425 20202020 20202020     or: %d          
a080a2dc:	00202020 535b203e 20444e45 4b534154        .> [SEND TASK
a080a2ec:	7473205d 20747261 646e6573 63617020     ] start send pac
a080a2fc:	6567616b 2020202e 20202020 20202020     kage.           
a080a30c:	20202020 0000000a 535b203e 20444e45         ....> [SEND 
a080a31c:	4b534154 6f74205d 6c6c6174 65732079     TASK] totally se
a080a32c:	7020646e 616b6361 25206567 20212064     nd package %d ! 
a080a33c:	20202020 0a202020 00000000 4345525b            .....[REC
a080a34c:	41542056 205d4b53 72617473 65722074     V TASK] start re
a080a35c:	203a7663 20202020 20202020 20202020     cv:             
a080a36c:	20202020 00202020 4345525b 41542056            .[RECV TA
a080a37c:	205d4b53 20202020 2074656e 76636572     SK]     net recv
a080a38c:	20736920 20216b6f 20202020 20202020      is ok!         
a080a39c:	20202020 20202020 20202020 20202020                     
a080a3ac:	00000020 4345525b 41542056 205d4b53      ...[RECV TASK] 
a080a3bc:	20202020 2074656e 76636572 20736920         net recv is 
a080a3cc:	6c756166 20202174 20202020 20202020     fault!          
a080a3dc:	20202020 20202020 20202020 00000020                  ...
a080a3ec:	495b203e 5d54494e 69615720 676e6974     > [INIT] Waiting
a080a3fc:	726f6620 43414d20 696e6920 6c616974      for MAC initial
a080a40c:	74617a69 206e6f69 00000a2e 495b203e     ization ....> [I
a080a41c:	5d54494e 43414d20 696e6920 6c616974     NIT] MAC initial
a080a42c:	74617a69 206e6f69 63637573 65646565     ization succeede
a080a43c:	20202e64 20202020 20202020 00000a20     d.           ...
a080a44c:	00000000 fffffffe 00000000 00000000     ................
	...
